
/home/chelsea/ysyx-workbench/am-kernels/benchmarks/microbench/build/microbench-riscv32e-ysyxsoc.elf：     文件格式 elf32-littleriscv


Disassembly of section .fsbl:

30000000 <_start>:
30000000:	00000413          	li	s0,0
30000004:	df002117          	auipc	sp,0xdf002
30000008:	ffc10113          	addi	sp,sp,-4 # f002000 <_end>
3000000c:	0c4000ef          	jal	ra,300000d0 <_trm_init>

Disassembly of section .bootloader:

30000010 <_bootloader>:
30000010:	70008717          	auipc	a4,0x70008
30000014:	a8c70713          	addi	a4,a4,-1396 # a0007a9c <_ZL8PUZZLE_H>
30000018:	00008797          	auipc	a5,0x8
3000001c:	bc478793          	addi	a5,a5,-1084 # 30007bdc <_data_load_start>
30000020:	02f70663          	beq	a4,a5,3000004c <_bootloader+0x3c>
30000024:	65700613          	li	a2,1623
30000028:	ffc67613          	andi	a2,a2,-4
3000002c:	00008697          	auipc	a3,0x8
30000030:	bb468693          	addi	a3,a3,-1100 # 30007be0 <_data_load_start+0x4>
30000034:	00d60633          	add	a2,a2,a3
30000038:	0007a683          	lw	a3,0(a5)
3000003c:	00478793          	addi	a5,a5,4
30000040:	00470713          	addi	a4,a4,4
30000044:	fed72e23          	sw	a3,-4(a4)
30000048:	fec798e3          	bne	a5,a2,30000038 <_bootloader+0x28>
3000004c:	70000717          	auipc	a4,0x70000
30000050:	fb470713          	addi	a4,a4,-76 # a0000000 <bench_memcpy.part.0>
30000054:	00000797          	auipc	a5,0x0
30000058:	0ec78793          	addi	a5,a5,236 # 30000140 <_bootloader_end>
3000005c:	02f70863          	beq	a4,a5,3000008c <_bootloader+0x7c>
30000060:	d0007617          	auipc	a2,0xd0007
30000064:	dab60613          	addi	a2,a2,-597 # 6e0b <_text_size+0x3>
30000068:	ffc67613          	andi	a2,a2,-4
3000006c:	00000697          	auipc	a3,0x0
30000070:	0d868693          	addi	a3,a3,216 # 30000144 <_bootloader_end+0x4>
30000074:	00d60633          	add	a2,a2,a3
30000078:	0007a683          	lw	a3,0(a5)
3000007c:	00478793          	addi	a5,a5,4
30000080:	00470713          	addi	a4,a4,4
30000084:	fed72e23          	sw	a3,-4(a4)
30000088:	fec798e3          	bne	a5,a2,30000078 <_bootloader+0x68>
3000008c:	70007717          	auipc	a4,0x70007
30000090:	d7c70713          	addi	a4,a4,-644 # a0006e08 <_etext>
30000094:	00007797          	auipc	a5,0x7
30000098:	eb478793          	addi	a5,a5,-332 # 30006f48 <_rodata_load_start>
3000009c:	02f70863          	beq	a4,a5,300000cc <_bootloader+0xbc>
300000a0:	d0001617          	auipc	a2,0xd0001
300000a4:	bf760613          	addi	a2,a2,-1033 # c97 <_rodata_size+0x3>
300000a8:	ffc67613          	andi	a2,a2,-4
300000ac:	00007697          	auipc	a3,0x7
300000b0:	ea068693          	addi	a3,a3,-352 # 30006f4c <_rodata_load_start+0x4>
300000b4:	00d60633          	add	a2,a2,a3
300000b8:	0007a683          	lw	a3,0(a5)
300000bc:	00478793          	addi	a5,a5,4
300000c0:	00470713          	addi	a4,a4,4
300000c4:	fed72e23          	sw	a3,-4(a4)
300000c8:	fec798e3          	bne	a5,a2,300000b8 <_bootloader+0xa8>
300000cc:	00008067          	ret

300000d0 <_trm_init>:
300000d0:	ff410113          	addi	sp,sp,-12
300000d4:	00112423          	sw	ra,8(sp)
300000d8:	f39ff0ef          	jal	ra,30000010 <_bootloader>
300000dc:	70008797          	auipc	a5,0x70008
300000e0:	00c7a783          	lw	a5,12(a5) # a00080e8 <heap>
300000e4:	04078663          	beqz	a5,30000130 <_trm_init+0x60>
300000e8:	100007b7          	lui	a5,0x10000
300000ec:	0037c703          	lbu	a4,3(a5) # 10000003 <_end+0xffe003>
300000f0:	70008517          	auipc	a0,0x70008
300000f4:	9a450513          	addi	a0,a0,-1628 # a0007a94 <mainargs>
300000f8:	f8000713          	li	a4,-128
300000fc:	00e781a3          	sb	a4,3(a5)
30000100:	000780a3          	sb	zero,1(a5)
30000104:	01000713          	li	a4,16
30000108:	00e78023          	sb	a4,0(a5)
3000010c:	00300713          	li	a4,3
30000110:	00e781a3          	sb	a4,3(a5)
30000114:	00700713          	li	a4,7
30000118:	00e780a3          	sb	a4,1(a5)
3000011c:	70005097          	auipc	ra,0x70005
30000120:	c04080e7          	jalr	-1020(ra) # a0004d20 <main>
30000124:	00050513          	mv	a0,a0
30000128:	00100073          	ebreak
3000012c:	0000006f          	j	3000012c <_trm_init+0x5c>
30000130:	00100793          	li	a5,1
30000134:	00078513          	mv	a0,a5
30000138:	00100073          	ebreak
3000013c:	0000006f          	j	3000013c <_trm_init+0x6c>

Disassembly of section .text:

a0000000 <bench_memcpy.part.0>:
a0000000:	ff410113          	addi	sp,sp,-12
a0000004:	00800613          	li	a2,8
a0000008:	00007597          	auipc	a1,0x7
a000000c:	e0058593          	addi	a1,a1,-512 # a0006e08 <_etext>
a0000010:	00007517          	auipc	a0,0x7
a0000014:	e4c50513          	addi	a0,a0,-436 # a0006e5c <_etext+0x54>
a0000018:	00112423          	sw	ra,8(sp)
a000001c:	3fd060ef          	jal	ra,a0006c18 <printf>
a0000020:	00100513          	li	a0,1
a0000024:	5a8050ef          	jal	ra,a00055cc <halt>

a0000028 <qlz_compress>:
a0000028:	fa410113          	addi	sp,sp,-92
a000002c:	00060713          	mv	a4,a2
a0000030:	04c12023          	sw	a2,64(sp)
a0000034:	04112c23          	sw	ra,88(sp)
a0000038:	04812a23          	sw	s0,84(sp)
a000003c:	04912823          	sw	s1,80(sp)
a0000040:	fff60613          	addi	a2,a2,-1
a0000044:	e6e00793          	li	a5,-402
a0000048:	02a12823          	sw	a0,48(sp)
a000004c:	02b12c23          	sw	a1,56(sp)
a0000050:	00d12223          	sw	a3,4(sp)
a0000054:	60c7e863          	bltu	a5,a2,a0000664 <qlz_compress+0x63c>
a0000058:	00300693          	li	a3,3
a000005c:	0d700793          	li	a5,215
a0000060:	02d12e23          	sw	a3,60(sp)
a0000064:	4ce7ec63          	bltu	a5,a4,a000053c <qlz_compress+0x514>
a0000068:	00412683          	lw	a3,4(sp)
a000006c:	000087b7          	lui	a5,0x8
a0000070:	00009737          	lui	a4,0x9
a0000074:	00478793          	addi	a5,a5,4 # 8004 <_text_size+0x11fc>
a0000078:	80470713          	addi	a4,a4,-2044 # 8804 <_text_size+0x19fc>
a000007c:	00f687b3          	add	a5,a3,a5
a0000080:	00e68733          	add	a4,a3,a4
a0000084:	00078023          	sb	zero,0(a5)
a0000088:	00178793          	addi	a5,a5,1
a000008c:	fef71ce3          	bne	a4,a5,a0000084 <qlz_compress+0x5c>
a0000090:	03012383          	lw	t2,48(sp)
a0000094:	03812683          	lw	a3,56(sp)
a0000098:	00c38733          	add	a4,t2,a2
a000009c:	03c12603          	lw	a2,60(sp)
a00000a0:	04e12423          	sw	a4,72(sp)
a00000a4:	00c686b3          	add	a3,a3,a2
a00000a8:	00468593          	addi	a1,a3,4
a00000ac:	ff670613          	addi	a2,a4,-10
a00000b0:	02d12a23          	sw	a3,52(sp)
a00000b4:	02c12223          	sw	a2,36(sp)
a00000b8:	00b12023          	sw	a1,0(sp)
a00000bc:	64766a63          	bltu	a2,t2,a0000710 <qlz_compress+0x6e8>
a00000c0:	04012783          	lw	a5,64(sp)
a00000c4:	80000437          	lui	s0,0x80000
a00000c8:	00d12c23          	sw	a3,24(sp)
a00000cc:	0017d793          	srli	a5,a5,0x1
a00000d0:	00f387b3          	add	a5,t2,a5
a00000d4:	02f12623          	sw	a5,44(sp)
a00000d8:	ffc70793          	addi	a5,a4,-4
a00000dc:	02f12423          	sw	a5,40(sp)
a00000e0:	00040493          	mv	s1,s0
a00000e4:	02812783          	lw	a5,40(sp)
a00000e8:	40778333          	sub	t1,a5,t2
a00000ec:	0fe00793          	li	a5,254
a00000f0:	0067d463          	bge	a5,t1,a00000f8 <qlz_compress+0xd0>
a00000f4:	0fe00313          	li	t1,254
a00000f8:	0013c783          	lbu	a5,1(t2)
a00000fc:	0023c703          	lbu	a4,2(t2)
a0000100:	0003c683          	lbu	a3,0(t2)
a0000104:	00879793          	slli	a5,a5,0x8
a0000108:	01071713          	slli	a4,a4,0x10
a000010c:	00e7e7b3          	or	a5,a5,a4
a0000110:	0097d713          	srli	a4,a5,0x9
a0000114:	00d7d613          	srli	a2,a5,0xd
a0000118:	00d7e6b3          	or	a3,a5,a3
a000011c:	00c747b3          	xor	a5,a4,a2
a0000120:	00412583          	lw	a1,4(sp)
a0000124:	00d7c7b3          	xor	a5,a5,a3
a0000128:	7ff7f793          	andi	a5,a5,2047
a000012c:	00479713          	slli	a4,a5,0x4
a0000130:	00e58633          	add	a2,a1,a4
a0000134:	00d12423          	sw	a3,8(sp)
a0000138:	00462683          	lw	a3,4(a2)
a000013c:	00f12623          	sw	a5,12(sp)
a0000140:	ffe38513          	addi	a0,t2,-2
a0000144:	00f587b3          	add	a5,a1,a5
a0000148:	00130293          	addi	t0,t1,1
a000014c:	000085b7          	lui	a1,0x8
a0000150:	00f12823          	sw	a5,16(sp)
a0000154:	00a12a23          	sw	a0,20(sp)
a0000158:	00f587b3          	add	a5,a1,a5
a000015c:	02512023          	sw	t0,32(sp)
a0000160:	0047c583          	lbu	a1,4(a5)
a0000164:	0aa6fa63          	bgeu	a3,a0,a0000218 <qlz_compress+0x1f0>
a0000168:	32059663          	bnez	a1,a0000494 <qlz_compress+0x46c>
a000016c:	00762223          	sw	t2,4(a2)
a0000170:	00100713          	li	a4,1
a0000174:	00e78223          	sb	a4,4(a5)
a0000178:	0014d493          	srli	s1,s1,0x1
a000017c:	00012703          	lw	a4,0(sp)
a0000180:	0003c783          	lbu	a5,0(t2)
a0000184:	00138393          	addi	t2,t2,1
a0000188:	00170713          	addi	a4,a4,1
a000018c:	00e12023          	sw	a4,0(sp)
a0000190:	fef70fa3          	sb	a5,-1(a4)
a0000194:	02412703          	lw	a4,36(sp)
a0000198:	0014f693          	andi	a3,s1,1
a000019c:	00068793          	mv	a5,a3
a00001a0:	14776863          	bltu	a4,t2,a00002f0 <qlz_compress+0x2c8>
a00001a4:	f40780e3          	beqz	a5,a00000e4 <qlz_compress+0xbc>
a00001a8:	02c12783          	lw	a5,44(sp)
a00001ac:	0277f263          	bgeu	a5,t2,a00001d0 <qlz_compress+0x1a8>
a00001b0:	03012783          	lw	a5,48(sp)
a00001b4:	00012703          	lw	a4,0(sp)
a00001b8:	03412603          	lw	a2,52(sp)
a00001bc:	40f387b3          	sub	a5,t2,a5
a00001c0:	4057d693          	srai	a3,a5,0x5
a00001c4:	40c70733          	sub	a4,a4,a2
a00001c8:	40d787b3          	sub	a5,a5,a3
a00001cc:	4ce7c263          	blt	a5,a4,a0000690 <qlz_compress+0x668>
a00001d0:	80000737          	lui	a4,0x80000
a00001d4:	0014d793          	srli	a5,s1,0x1
a00001d8:	00e7e7b3          	or	a5,a5,a4
a00001dc:	01812703          	lw	a4,24(sp)
a00001e0:	04f12623          	sw	a5,76(sp)
a00001e4:	05010613          	addi	a2,sp,80
a00001e8:	04c10793          	addi	a5,sp,76
a00001ec:	0007c683          	lbu	a3,0(a5)
a00001f0:	00178793          	addi	a5,a5,1
a00001f4:	00170713          	addi	a4,a4,1 # 80000001 <_heap_end+0xdfdf7e49>
a00001f8:	fed70fa3          	sb	a3,-1(a4)
a00001fc:	fef618e3          	bne	a2,a5,a00001ec <qlz_compress+0x1c4>
a0000200:	00012783          	lw	a5,0(sp)
a0000204:	800004b7          	lui	s1,0x80000
a0000208:	00f12c23          	sw	a5,24(sp)
a000020c:	00478793          	addi	a5,a5,4
a0000210:	00f12023          	sw	a5,0(sp)
a0000214:	ed1ff06f          	j	a00000e4 <qlz_compress+0xbc>
a0000218:	00000793          	li	a5,0
a000021c:	00412683          	lw	a3,4(sp)
a0000220:	00012e23          	sw	zero,28(sp)
a0000224:	00030413          	mv	s0,t1
a0000228:	00e68733          	add	a4,a3,a4
a000022c:	00100693          	li	a3,1
a0000230:	02b6f663          	bgeu	a3,a1,a000025c <qlz_compress+0x234>
a0000234:	00872603          	lw	a2,8(a4)
a0000238:	00f38533          	add	a0,t2,a5
a000023c:	00054303          	lbu	t1,0(a0)
a0000240:	00f60533          	add	a0,a2,a5
a0000244:	00054503          	lbu	a0,0(a0)
a0000248:	1ca30463          	beq	t1,a0,a0000410 <qlz_compress+0x3e8>
a000024c:	00168693          	addi	a3,a3,1
a0000250:	00400613          	li	a2,4
a0000254:	00470713          	addi	a4,a4,4
a0000258:	fcc69ce3          	bne	a3,a2,a0000230 <qlz_compress+0x208>
a000025c:	00c12603          	lw	a2,12(sp)
a0000260:	0035f693          	andi	a3,a1,3
a0000264:	00158593          	addi	a1,a1,1 # 8001 <_text_size+0x11f9>
a0000268:	00261713          	slli	a4,a2,0x2
a000026c:	00d70733          	add	a4,a4,a3
a0000270:	00412683          	lw	a3,4(sp)
a0000274:	00271713          	slli	a4,a4,0x2
a0000278:	0014d493          	srli	s1,s1,0x1
a000027c:	00e68733          	add	a4,a3,a4
a0000280:	01012683          	lw	a3,16(sp)
a0000284:	00772223          	sw	t2,4(a4)
a0000288:	00008737          	lui	a4,0x8
a000028c:	00d70733          	add	a4,a4,a3
a0000290:	00b70223          	sb	a1,4(a4) # 8004 <_text_size+0x11fc>
a0000294:	00200713          	li	a4,2
a0000298:	eef772e3          	bgeu	a4,a5,a000017c <qlz_compress+0x154>
a000029c:	00561713          	slli	a4,a2,0x5
a00002a0:	80000637          	lui	a2,0x80000
a00002a4:	00c4e4b3          	or	s1,s1,a2
a00002a8:	01c12603          	lw	a2,28(sp)
a00002ac:	00900693          	li	a3,9
a00002b0:	00f383b3          	add	t2,t2,a5
a00002b4:	00c76733          	or	a4,a4,a2
a00002b8:	24f6ec63          	bltu	a3,a5,a0000510 <qlz_compress+0x4e8>
a00002bc:	ffe78793          	addi	a5,a5,-2
a00002c0:	00012683          	lw	a3,0(sp)
a00002c4:	00279793          	slli	a5,a5,0x2
a00002c8:	00e7e7b3          	or	a5,a5,a4
a00002cc:	0087d713          	srli	a4,a5,0x8
a00002d0:	00e680a3          	sb	a4,1(a3)
a00002d4:	02412703          	lw	a4,36(sp)
a00002d8:	00f68023          	sb	a5,0(a3)
a00002dc:	00268793          	addi	a5,a3,2
a00002e0:	00f12023          	sw	a5,0(sp)
a00002e4:	0014f693          	andi	a3,s1,1
a00002e8:	00068793          	mv	a5,a3
a00002ec:	ea777ce3          	bgeu	a4,t2,a00001a4 <qlz_compress+0x17c>
a00002f0:	04812583          	lw	a1,72(sp)
a00002f4:	0014d613          	srli	a2,s1,0x1
a00002f8:	00048413          	mv	s0,s1
a00002fc:	00060713          	mv	a4,a2
a0000300:	4075e263          	bltu	a1,t2,a0000704 <qlz_compress+0x6dc>
a0000304:	04812683          	lw	a3,72(sp)
a0000308:	04012603          	lw	a2,64(sp)
a000030c:	00012503          	lw	a0,0(sp)
a0000310:	ffd68293          	addi	t0,a3,-3
a0000314:	03012683          	lw	a3,48(sp)
a0000318:	05010593          	addi	a1,sp,80
a000031c:	00c684b3          	add	s1,a3,a2
a0000320:	04c10693          	addi	a3,sp,76
a0000324:	00d12623          	sw	a3,12(sp)
a0000328:	00048613          	mv	a2,s1
a000032c:	0a079063          	bnez	a5,a00003cc <qlz_compress+0x3a4>
a0000330:	00245793          	srli	a5,s0,0x2
a0000334:	00f12423          	sw	a5,8(sp)
a0000338:	00177693          	andi	a3,a4,1
a000033c:	00070413          	mv	s0,a4
a0000340:	0672e663          	bltu	t0,t2,a00003ac <qlz_compress+0x384>
a0000344:	0013c703          	lbu	a4,1(t2)
a0000348:	0023c783          	lbu	a5,2(t2)
a000034c:	0003c483          	lbu	s1,0(t2)
a0000350:	00871713          	slli	a4,a4,0x8
a0000354:	01079793          	slli	a5,a5,0x10
a0000358:	00f76733          	or	a4,a4,a5
a000035c:	00d75313          	srli	t1,a4,0xd
a0000360:	00975793          	srli	a5,a4,0x9
a0000364:	0067c7b3          	xor	a5,a5,t1
a0000368:	00976733          	or	a4,a4,s1
a000036c:	00e7c7b3          	xor	a5,a5,a4
a0000370:	00412703          	lw	a4,4(sp)
a0000374:	7ff7f793          	andi	a5,a5,2047
a0000378:	00008337          	lui	t1,0x8
a000037c:	00f70733          	add	a4,a4,a5
a0000380:	00e30733          	add	a4,t1,a4
a0000384:	00474303          	lbu	t1,4(a4)
a0000388:	00279793          	slli	a5,a5,0x2
a000038c:	00337493          	andi	s1,t1,3
a0000390:	009787b3          	add	a5,a5,s1
a0000394:	00412483          	lw	s1,4(sp)
a0000398:	00279793          	slli	a5,a5,0x2
a000039c:	00130313          	addi	t1,t1,1 # 8001 <_text_size+0x11f9>
a00003a0:	00f487b3          	add	a5,s1,a5
a00003a4:	0077a223          	sw	t2,4(a5)
a00003a8:	00670223          	sb	t1,4(a4)
a00003ac:	0003c783          	lbu	a5,0(t2)
a00003b0:	00138393          	addi	t2,t2,1
a00003b4:	00150513          	addi	a0,a0,1
a00003b8:	fef50fa3          	sb	a5,-1(a0)
a00003bc:	18c38663          	beq	t2,a2,a0000548 <qlz_compress+0x520>
a00003c0:	00147793          	andi	a5,s0,1
a00003c4:	00145713          	srli	a4,s0,0x1
a00003c8:	f60784e3          	beqz	a5,a0000330 <qlz_compress+0x308>
a00003cc:	800007b7          	lui	a5,0x80000
a00003d0:	00f76733          	or	a4,a4,a5
a00003d4:	04e12623          	sw	a4,76(sp)
a00003d8:	00c12783          	lw	a5,12(sp)
a00003dc:	01812703          	lw	a4,24(sp)
a00003e0:	0007c683          	lbu	a3,0(a5) # 80000000 <_heap_end+0xdfdf7e48>
a00003e4:	00178793          	addi	a5,a5,1
a00003e8:	00170713          	addi	a4,a4,1
a00003ec:	fed70fa3          	sb	a3,-1(a4)
a00003f0:	fef598e3          	bne	a1,a5,a00003e0 <qlz_compress+0x3b8>
a00003f4:	200007b7          	lui	a5,0x20000
a00003f8:	00a12c23          	sw	a0,24(sp)
a00003fc:	00f12423          	sw	a5,8(sp)
a0000400:	00450513          	addi	a0,a0,4
a0000404:	00000693          	li	a3,0
a0000408:	40000437          	lui	s0,0x40000
a000040c:	f35ff06f          	j	a0000340 <qlz_compress+0x318>
a0000410:	00164503          	lbu	a0,1(a2) # 80000001 <_heap_end+0xdfdf7e49>
a0000414:	00264303          	lbu	t1,2(a2)
a0000418:	00064283          	lbu	t0,0(a2)
a000041c:	00851513          	slli	a0,a0,0x8
a0000420:	01031313          	slli	t1,t1,0x10
a0000424:	00656533          	or	a0,a0,t1
a0000428:	00812303          	lw	t1,8(sp)
a000042c:	00556533          	or	a0,a0,t0
a0000430:	e0651ee3          	bne	a0,t1,a000024c <qlz_compress+0x224>
a0000434:	01412503          	lw	a0,20(sp)
a0000438:	e0a67ae3          	bgeu	a2,a0,a000024c <qlz_compress+0x224>
a000043c:	00364303          	lbu	t1,3(a2)
a0000440:	0033c503          	lbu	a0,3(t2)
a0000444:	2aa31c63          	bne	t1,a0,a00006fc <qlz_compress+0x6d4>
a0000448:	02012503          	lw	a0,32(sp)
a000044c:	00300313          	li	t1,3
a0000450:	2aa37663          	bgeu	t1,a0,a00006fc <qlz_compress+0x6d4>
a0000454:	00300513          	li	a0,3
a0000458:	04b12223          	sw	a1,68(sp)
a000045c:	0080006f          	j	a0000464 <qlz_compress+0x43c>
a0000460:	1e540c63          	beq	s0,t0,a0000658 <qlz_compress+0x630>
a0000464:	00050293          	mv	t0,a0
a0000468:	00150513          	addi	a0,a0,1
a000046c:	00a60333          	add	t1,a2,a0
a0000470:	00a385b3          	add	a1,t2,a0
a0000474:	00034303          	lbu	t1,0(t1)
a0000478:	0005c583          	lbu	a1,0(a1)
a000047c:	feb302e3          	beq	t1,a1,a0000460 <qlz_compress+0x438>
a0000480:	04412583          	lw	a1,68(sp)
a0000484:	dca7f4e3          	bgeu	a5,a0,a000024c <qlz_compress+0x224>
a0000488:	00d12e23          	sw	a3,28(sp)
a000048c:	00050793          	mv	a5,a0
a0000490:	dbdff06f          	j	a000024c <qlz_compress+0x224>
a0000494:	0016c783          	lbu	a5,1(a3)
a0000498:	0026c603          	lbu	a2,2(a3)
a000049c:	0006c503          	lbu	a0,0(a3)
a00004a0:	00879793          	slli	a5,a5,0x8
a00004a4:	01061613          	slli	a2,a2,0x10
a00004a8:	00c7e7b3          	or	a5,a5,a2
a00004ac:	00a7e633          	or	a2,a5,a0
a00004b0:	00812503          	lw	a0,8(sp)
a00004b4:	00000793          	li	a5,0
a00004b8:	d6a612e3          	bne	a2,a0,a000021c <qlz_compress+0x1f4>
a00004bc:	0036c503          	lbu	a0,3(a3)
a00004c0:	0033c603          	lbu	a2,3(t2)
a00004c4:	00300793          	li	a5,3
a00004c8:	d4c51ae3          	bne	a0,a2,a000021c <qlz_compress+0x1f4>
a00004cc:	0043c603          	lbu	a2,4(t2)
a00004d0:	0046c783          	lbu	a5,4(a3)
a00004d4:	26f61263          	bne	a2,a5,a0000738 <qlz_compress+0x710>
a00004d8:	00130793          	addi	a5,t1,1
a00004dc:	00400613          	li	a2,4
a00004e0:	24f67c63          	bgeu	a2,a5,a0000738 <qlz_compress+0x710>
a00004e4:	00400793          	li	a5,4
a00004e8:	00078293          	mv	t0,a5
a00004ec:	00178793          	addi	a5,a5,1 # 20000001 <_end+0x10ffe001>
a00004f0:	00f68533          	add	a0,a3,a5
a00004f4:	00f38633          	add	a2,t2,a5
a00004f8:	00054503          	lbu	a0,0(a0)
a00004fc:	00064603          	lbu	a2,0(a2)
a0000500:	d0c51ee3          	bne	a0,a2,a000021c <qlz_compress+0x1f4>
a0000504:	fe5312e3          	bne	t1,t0,a00004e8 <qlz_compress+0x4c0>
a0000508:	02012783          	lw	a5,32(sp)
a000050c:	d11ff06f          	j	a000021c <qlz_compress+0x1f4>
a0000510:	00012603          	lw	a2,0(sp)
a0000514:	01079793          	slli	a5,a5,0x10
a0000518:	00e7e7b3          	or	a5,a5,a4
a000051c:	0087d693          	srli	a3,a5,0x8
a0000520:	0107d713          	srli	a4,a5,0x10
a0000524:	00f60023          	sb	a5,0(a2)
a0000528:	00360793          	addi	a5,a2,3
a000052c:	00d600a3          	sb	a3,1(a2)
a0000530:	00e60123          	sb	a4,2(a2)
a0000534:	00f12023          	sw	a5,0(sp)
a0000538:	c5dff06f          	j	a0000194 <qlz_compress+0x16c>
a000053c:	00900793          	li	a5,9
a0000540:	02f12e23          	sw	a5,60(sp)
a0000544:	b25ff06f          	j	a0000068 <qlz_compress+0x40>
a0000548:	00812603          	lw	a2,8(sp)
a000054c:	00a12023          	sw	a0,0(sp)
a0000550:	00069c63          	bnez	a3,a0000568 <qlz_compress+0x540>
a0000554:	00040613          	mv	a2,s0
a0000558:	00145413          	srli	s0,s0,0x1
a000055c:	00147793          	andi	a5,s0,1
a0000560:	fe078ae3          	beqz	a5,a0000554 <qlz_compress+0x52c>
a0000564:	00265613          	srli	a2,a2,0x2
a0000568:	800007b7          	lui	a5,0x80000
a000056c:	00f66633          	or	a2,a2,a5
a0000570:	01812703          	lw	a4,24(sp)
a0000574:	00c12783          	lw	a5,12(sp)
a0000578:	04c12623          	sw	a2,76(sp)
a000057c:	05010613          	addi	a2,sp,80
a0000580:	0007c683          	lbu	a3,0(a5) # 80000000 <_heap_end+0xdfdf7e48>
a0000584:	00178793          	addi	a5,a5,1
a0000588:	00170713          	addi	a4,a4,1
a000058c:	fed70fa3          	sb	a3,-1(a4)
a0000590:	fef618e3          	bne	a2,a5,a0000580 <qlz_compress+0x558>
a0000594:	00012783          	lw	a5,0(sp)
a0000598:	03412703          	lw	a4,52(sp)
a000059c:	40e78533          	sub	a0,a5,a4
a00005a0:	00900793          	li	a5,9
a00005a4:	00f55463          	bge	a0,a5,a00005ac <qlz_compress+0x584>
a00005a8:	00900513          	li	a0,9
a00005ac:	03c12783          	lw	a5,60(sp)
a00005b0:	00f50533          	add	a0,a0,a5
a00005b4:	00100793          	li	a5,1
a00005b8:	00412703          	lw	a4,4(sp)
a00005bc:	03c12683          	lw	a3,60(sp)
a00005c0:	00072023          	sw	zero,0(a4)
a00005c4:	00300713          	li	a4,3
a00005c8:	0ae68a63          	beq	a3,a4,a000067c <qlz_compress+0x654>
a00005cc:	03812703          	lw	a4,56(sp)
a00005d0:	0027e793          	ori	a5,a5,2
a00005d4:	04c10693          	addi	a3,sp,76
a00005d8:	00f70023          	sb	a5,0(a4)
a00005dc:	00d12623          	sw	a3,12(sp)
a00005e0:	04a12623          	sw	a0,76(sp)
a00005e4:	00068793          	mv	a5,a3
a00005e8:	00170713          	addi	a4,a4,1
a00005ec:	05010613          	addi	a2,sp,80
a00005f0:	0007c683          	lbu	a3,0(a5)
a00005f4:	00178793          	addi	a5,a5,1
a00005f8:	00170713          	addi	a4,a4,1
a00005fc:	fed70fa3          	sb	a3,-1(a4)
a0000600:	fef618e3          	bne	a2,a5,a00005f0 <qlz_compress+0x5c8>
a0000604:	04012783          	lw	a5,64(sp)
a0000608:	03812703          	lw	a4,56(sp)
a000060c:	05010613          	addi	a2,sp,80
a0000610:	04f12623          	sw	a5,76(sp)
a0000614:	00c12783          	lw	a5,12(sp)
a0000618:	00570713          	addi	a4,a4,5
a000061c:	0007c683          	lbu	a3,0(a5)
a0000620:	00178793          	addi	a5,a5,1
a0000624:	00170713          	addi	a4,a4,1
a0000628:	fed70fa3          	sb	a3,-1(a4)
a000062c:	fec798e3          	bne	a5,a2,a000061c <qlz_compress+0x5f4>
a0000630:	03812783          	lw	a5,56(sp)
a0000634:	0007c783          	lbu	a5,0(a5)
a0000638:	03812703          	lw	a4,56(sp)
a000063c:	0487e793          	ori	a5,a5,72
a0000640:	00f70023          	sb	a5,0(a4)
a0000644:	05812083          	lw	ra,88(sp)
a0000648:	05412403          	lw	s0,84(sp)
a000064c:	05012483          	lw	s1,80(sp)
a0000650:	05c10113          	addi	sp,sp,92
a0000654:	00008067          	ret
a0000658:	04412583          	lw	a1,68(sp)
a000065c:	02012503          	lw	a0,32(sp)
a0000660:	e25ff06f          	j	a0000484 <qlz_compress+0x45c>
a0000664:	05812083          	lw	ra,88(sp)
a0000668:	05412403          	lw	s0,84(sp)
a000066c:	05012483          	lw	s1,80(sp)
a0000670:	00000513          	li	a0,0
a0000674:	05c10113          	addi	sp,sp,92
a0000678:	00008067          	ret
a000067c:	03812703          	lw	a4,56(sp)
a0000680:	04012683          	lw	a3,64(sp)
a0000684:	00a700a3          	sb	a0,1(a4)
a0000688:	00d70123          	sb	a3,2(a4)
a000068c:	fadff06f          	j	a0000638 <qlz_compress+0x610>
a0000690:	03012783          	lw	a5,48(sp)
a0000694:	0c078263          	beqz	a5,a0000758 <qlz_compress+0x730>
a0000698:	03012603          	lw	a2,48(sp)
a000069c:	04012683          	lw	a3,64(sp)
a00006a0:	03412703          	lw	a4,52(sp)
a00006a4:	00d607b3          	add	a5,a2,a3
a00006a8:	02f77a63          	bgeu	a4,a5,a00006dc <qlz_compress+0x6b4>
a00006ac:	02e67863          	bgeu	a2,a4,a00006dc <qlz_compress+0x6b4>
a00006b0:	00d70733          	add	a4,a4,a3
a00006b4:	fff7c683          	lbu	a3,-1(a5)
a00006b8:	fff78793          	addi	a5,a5,-1
a00006bc:	fff70713          	addi	a4,a4,-1
a00006c0:	00d70023          	sb	a3,0(a4)
a00006c4:	fef618e3          	bne	a2,a5,a00006b4 <qlz_compress+0x68c>
a00006c8:	03c12783          	lw	a5,60(sp)
a00006cc:	04012703          	lw	a4,64(sp)
a00006d0:	00e78533          	add	a0,a5,a4
a00006d4:	00000793          	li	a5,0
a00006d8:	ee1ff06f          	j	a00005b8 <qlz_compress+0x590>
a00006dc:	03412683          	lw	a3,52(sp)
a00006e0:	03012703          	lw	a4,48(sp)
a00006e4:	00074603          	lbu	a2,0(a4)
a00006e8:	00170713          	addi	a4,a4,1
a00006ec:	00168693          	addi	a3,a3,1
a00006f0:	fec68fa3          	sb	a2,-1(a3)
a00006f4:	fee798e3          	bne	a5,a4,a00006e4 <qlz_compress+0x6bc>
a00006f8:	fd1ff06f          	j	a00006c8 <qlz_compress+0x6a0>
a00006fc:	00300513          	li	a0,3
a0000700:	d85ff06f          	j	a0000484 <qlz_compress+0x45c>
a0000704:	04c10793          	addi	a5,sp,76
a0000708:	00f12623          	sw	a5,12(sp)
a000070c:	e45ff06f          	j	a0000550 <qlz_compress+0x528>
a0000710:	03012783          	lw	a5,48(sp)
a0000714:	04812703          	lw	a4,72(sp)
a0000718:	02f76463          	bltu	a4,a5,a0000740 <qlz_compress+0x718>
a000071c:	03412783          	lw	a5,52(sp)
a0000720:	03012383          	lw	t2,48(sp)
a0000724:	80000437          	lui	s0,0x80000
a0000728:	00f12c23          	sw	a5,24(sp)
a000072c:	40000737          	lui	a4,0x40000
a0000730:	00000793          	li	a5,0
a0000734:	bd1ff06f          	j	a0000304 <qlz_compress+0x2dc>
a0000738:	00400793          	li	a5,4
a000073c:	ae1ff06f          	j	a000021c <qlz_compress+0x1f4>
a0000740:	03412783          	lw	a5,52(sp)
a0000744:	80000437          	lui	s0,0x80000
a0000748:	00f12c23          	sw	a5,24(sp)
a000074c:	04c10793          	addi	a5,sp,76
a0000750:	00f12623          	sw	a5,12(sp)
a0000754:	e01ff06f          	j	a0000554 <qlz_compress+0x52c>
a0000758:	8a9ff0ef          	jal	ra,a0000000 <bench_memcpy.part.0>

a000075c <bench_lzip_prepare>:
a000075c:	00008797          	auipc	a5,0x8
a0000760:	a447a783          	lw	a5,-1468(a5) # a00081a0 <setting>
a0000764:	0007a783          	lw	a5,0(a5)
a0000768:	ff010113          	addi	sp,sp,-16
a000076c:	00912223          	sw	s1,4(sp)
a0000770:	00100513          	li	a0,1
a0000774:	00008497          	auipc	s1,0x8
a0000778:	99c48493          	addi	s1,s1,-1636 # a0008110 <SIZE>
a000077c:	00112623          	sw	ra,12(sp)
a0000780:	00f4a023          	sw	a5,0(s1)
a0000784:	00812423          	sw	s0,8(sp)
a0000788:	329040ef          	jal	ra,a00052b0 <bench_srand>
a000078c:	00009537          	lui	a0,0x9
a0000790:	80450513          	addi	a0,a0,-2044 # 8804 <_text_size+0x19fc>
a0000794:	275040ef          	jal	ra,a0005208 <bench_alloc>
a0000798:	00050793          	mv	a5,a0
a000079c:	0004a503          	lw	a0,0(s1)
a00007a0:	00008717          	auipc	a4,0x8
a00007a4:	98f72023          	sw	a5,-1664(a4) # a0008120 <state>
a00007a8:	261040ef          	jal	ra,a0005208 <bench_alloc>
a00007ac:	0004a783          	lw	a5,0(s1)
a00007b0:	00008717          	auipc	a4,0x8
a00007b4:	96470713          	addi	a4,a4,-1692 # a0008114 <blk>
a00007b8:	00a72023          	sw	a0,0(a4)
a00007bc:	19078513          	addi	a0,a5,400
a00007c0:	249040ef          	jal	ra,a0005208 <bench_alloc>
a00007c4:	0004a783          	lw	a5,0(s1)
a00007c8:	00008717          	auipc	a4,0x8
a00007cc:	94a72823          	sw	a0,-1712(a4) # a0008118 <compress>
a00007d0:	04f05063          	blez	a5,a0000810 <bench_lzip_prepare+0xb4>
a00007d4:	00000413          	li	s0,0
a00007d8:	2ed040ef          	jal	ra,a00052c4 <bench_rand>
a00007dc:	00008797          	auipc	a5,0x8
a00007e0:	93878793          	addi	a5,a5,-1736 # a0008114 <blk>
a00007e4:	0007a783          	lw	a5,0(a5)
a00007e8:	01a00593          	li	a1,26
a00007ec:	008787b3          	add	a5,a5,s0
a00007f0:	00f12023          	sw	a5,0(sp)
a00007f4:	45c050ef          	jal	ra,a0005c50 <__umodsi3>
a00007f8:	00012783          	lw	a5,0(sp)
a00007fc:	0004a703          	lw	a4,0(s1)
a0000800:	06150513          	addi	a0,a0,97
a0000804:	00a78023          	sb	a0,0(a5)
a0000808:	00140413          	addi	s0,s0,1 # 80000001 <_heap_end+0xdfdf7e49>
a000080c:	fce446e3          	blt	s0,a4,a00007d8 <bench_lzip_prepare+0x7c>
a0000810:	00c12083          	lw	ra,12(sp)
a0000814:	00812403          	lw	s0,8(sp)
a0000818:	00412483          	lw	s1,4(sp)
a000081c:	01010113          	addi	sp,sp,16
a0000820:	00008067          	ret

a0000824 <bench_lzip_run>:
a0000824:	ff410113          	addi	sp,sp,-12
a0000828:	00008697          	auipc	a3,0x8
a000082c:	8f86a683          	lw	a3,-1800(a3) # a0008120 <state>
a0000830:	00008617          	auipc	a2,0x8
a0000834:	8e062603          	lw	a2,-1824(a2) # a0008110 <SIZE>
a0000838:	00008597          	auipc	a1,0x8
a000083c:	8e05a583          	lw	a1,-1824(a1) # a0008118 <compress>
a0000840:	00008517          	auipc	a0,0x8
a0000844:	8d452503          	lw	a0,-1836(a0) # a0008114 <blk>
a0000848:	00112423          	sw	ra,8(sp)
a000084c:	fdcff0ef          	jal	ra,a0000028 <qlz_compress>
a0000850:	00812083          	lw	ra,8(sp)
a0000854:	00008797          	auipc	a5,0x8
a0000858:	8ca7a423          	sw	a0,-1848(a5) # a000811c <len>
a000085c:	00c10113          	addi	sp,sp,12
a0000860:	00008067          	ret

a0000864 <bench_lzip_validate>:
a0000864:	00008517          	auipc	a0,0x8
a0000868:	8b452503          	lw	a0,-1868(a0) # a0008118 <compress>
a000086c:	00008597          	auipc	a1,0x8
a0000870:	8b05a583          	lw	a1,-1872(a1) # a000811c <len>
a0000874:	ff410113          	addi	sp,sp,-12
a0000878:	00b505b3          	add	a1,a0,a1
a000087c:	00112423          	sw	ra,8(sp)
a0000880:	295040ef          	jal	ra,a0005314 <checksum>
a0000884:	00008797          	auipc	a5,0x8
a0000888:	91c7a783          	lw	a5,-1764(a5) # a00081a0 <setting>
a000088c:	00c7a783          	lw	a5,12(a5)
a0000890:	00812083          	lw	ra,8(sp)
a0000894:	40a78533          	sub	a0,a5,a0
a0000898:	00153513          	seqz	a0,a0
a000089c:	00c10113          	addi	sp,sp,12
a00008a0:	00008067          	ret

a00008a4 <bench_md5_prepare>:
a00008a4:	00008797          	auipc	a5,0x8
a00008a8:	8fc7a783          	lw	a5,-1796(a5) # a00081a0 <setting>
a00008ac:	0007a783          	lw	a5,0(a5)
a00008b0:	ff410113          	addi	sp,sp,-12
a00008b4:	00912023          	sw	s1,0(sp)
a00008b8:	00100513          	li	a0,1
a00008bc:	00008497          	auipc	s1,0x8
a00008c0:	86848493          	addi	s1,s1,-1944 # a0008124 <N>
a00008c4:	00f4a023          	sw	a5,0(s1)
a00008c8:	00112423          	sw	ra,8(sp)
a00008cc:	00812223          	sw	s0,4(sp)
a00008d0:	1e1040ef          	jal	ra,a00052b0 <bench_srand>
a00008d4:	0004a503          	lw	a0,0(s1)
a00008d8:	131040ef          	jal	ra,a0005208 <bench_alloc>
a00008dc:	0004a783          	lw	a5,0(s1)
a00008e0:	00008697          	auipc	a3,0x8
a00008e4:	84c68693          	addi	a3,a3,-1972 # a000812c <str>
a00008e8:	00a6a023          	sw	a0,0(a3)
a00008ec:	02f05663          	blez	a5,a0000918 <bench_md5_prepare+0x74>
a00008f0:	00000413          	li	s0,0
a00008f4:	1d1040ef          	jal	ra,a00052c4 <bench_rand>
a00008f8:	00008697          	auipc	a3,0x8
a00008fc:	83468693          	addi	a3,a3,-1996 # a000812c <str>
a0000900:	0006a783          	lw	a5,0(a3)
a0000904:	0004a703          	lw	a4,0(s1)
a0000908:	008787b3          	add	a5,a5,s0
a000090c:	00a78023          	sb	a0,0(a5)
a0000910:	00140413          	addi	s0,s0,1
a0000914:	fee440e3          	blt	s0,a4,a00008f4 <bench_md5_prepare+0x50>
a0000918:	01000513          	li	a0,16
a000091c:	0ed040ef          	jal	ra,a0005208 <bench_alloc>
a0000920:	00812083          	lw	ra,8(sp)
a0000924:	00412403          	lw	s0,4(sp)
a0000928:	00008797          	auipc	a5,0x8
a000092c:	80a7a023          	sw	a0,-2048(a5) # a0008128 <digest>
a0000930:	00012483          	lw	s1,0(sp)
a0000934:	00c10113          	addi	sp,sp,12
a0000938:	00008067          	ret

a000093c <bench_md5_run>:
a000093c:	00007617          	auipc	a2,0x7
a0000940:	7e862603          	lw	a2,2024(a2) # a0008124 <N>
a0000944:	f8c10113          	addi	sp,sp,-116
a0000948:	00007597          	auipc	a1,0x7
a000094c:	7e45a583          	lw	a1,2020(a1) # a000812c <str>
a0000950:	00160793          	addi	a5,a2,1
a0000954:	00007517          	auipc	a0,0x7
a0000958:	7d452503          	lw	a0,2004(a0) # a0008128 <digest>
a000095c:	00b12e23          	sw	a1,28(sp)
a0000960:	06812823          	sw	s0,112(sp)
a0000964:	06912623          	sw	s1,108(sp)
a0000968:	03f7f693          	andi	a3,a5,63
a000096c:	03800713          	li	a4,56
a0000970:	02a12423          	sw	a0,40(sp)
a0000974:	00c585b3          	add	a1,a1,a2
a0000978:	36e68863          	beq	a3,a4,a0000ce8 <bench_md5_run+0x3ac>
a000097c:	00078713          	mv	a4,a5
a0000980:	03800693          	li	a3,56
a0000984:	00170713          	addi	a4,a4,1
a0000988:	03f77513          	andi	a0,a4,63
a000098c:	fed51ce3          	bne	a0,a3,a0000984 <bench_md5_run+0x48>
a0000990:	00070693          	mv	a3,a4
a0000994:	02e12023          	sw	a4,32(sp)
a0000998:	f8000713          	li	a4,-128
a000099c:	00e58023          	sb	a4,0(a1)
a00009a0:	36d7f263          	bgeu	a5,a3,a0000d04 <bench_md5_run+0x3c8>
a00009a4:	01c12703          	lw	a4,28(sp)
a00009a8:	02012683          	lw	a3,32(sp)
a00009ac:	00f707b3          	add	a5,a4,a5
a00009b0:	00d70733          	add	a4,a4,a3
a00009b4:	00078023          	sb	zero,0(a5)
a00009b8:	00178793          	addi	a5,a5,1
a00009bc:	fef71ce3          	bne	a4,a5,a00009b4 <bench_md5_run+0x78>
a00009c0:	00361693          	slli	a3,a2,0x3
a00009c4:	02012783          	lw	a5,32(sp)
a00009c8:	0086d313          	srli	t1,a3,0x8
a00009cc:	0106d513          	srli	a0,a3,0x10
a00009d0:	0186d593          	srli	a1,a3,0x18
a00009d4:	00d70023          	sb	a3,0(a4)
a00009d8:	006700a3          	sb	t1,1(a4)
a00009dc:	00a70123          	sb	a0,2(a4)
a00009e0:	00b701a3          	sb	a1,3(a4)
a00009e4:	01c12703          	lw	a4,28(sp)
a00009e8:	00478793          	addi	a5,a5,4
a00009ec:	01d65613          	srli	a2,a2,0x1d
a00009f0:	00f707b3          	add	a5,a4,a5
a00009f4:	00c78023          	sb	a2,0(a5)
a00009f8:	000780a3          	sb	zero,1(a5)
a00009fc:	00078123          	sb	zero,2(a5)
a0000a00:	000781a3          	sb	zero,3(a5)
a0000a04:	103257b7          	lui	a5,0x10325
a0000a08:	47678793          	addi	a5,a5,1142 # 10325476 <_end+0x1323476>
a0000a0c:	00f12a23          	sw	a5,20(sp)
a0000a10:	98bae7b7          	lui	a5,0x98bae
a0000a14:	cfe78793          	addi	a5,a5,-770 # 98badcfe <_heap_end+0xf89a5b46>
a0000a18:	00f12823          	sw	a5,16(sp)
a0000a1c:	efcdb7b7          	lui	a5,0xefcdb
a0000a20:	b8978793          	addi	a5,a5,-1143 # efcdab89 <_heap_end+0x4fad29d1>
a0000a24:	00f12623          	sw	a5,12(sp)
a0000a28:	674527b7          	lui	a5,0x67452
a0000a2c:	30178793          	addi	a5,a5,769 # 67452301 <_data_load_start+0x3744a725>
a0000a30:	00f12423          	sw	a5,8(sp)
a0000a34:	d76aa7b7          	lui	a5,0xd76aa
a0000a38:	47878793          	addi	a5,a5,1144 # d76aa478 <_heap_end+0x374a22c0>
a0000a3c:	00012c23          	sw	zero,24(sp)
a0000a40:	02f12223          	sw	a5,36(sp)
a0000a44:	01812703          	lw	a4,24(sp)
a0000a48:	01c12783          	lw	a5,28(sp)
a0000a4c:	00e787b3          	add	a5,a5,a4
a0000a50:	02c10713          	addi	a4,sp,44
a0000a54:	0017c583          	lbu	a1,1(a5)
a0000a58:	0007c503          	lbu	a0,0(a5)
a0000a5c:	0027c603          	lbu	a2,2(a5)
a0000a60:	0037c683          	lbu	a3,3(a5)
a0000a64:	00859593          	slli	a1,a1,0x8
a0000a68:	00a5e5b3          	or	a1,a1,a0
a0000a6c:	01061613          	slli	a2,a2,0x10
a0000a70:	00b66633          	or	a2,a2,a1
a0000a74:	01869693          	slli	a3,a3,0x18
a0000a78:	00c6e6b3          	or	a3,a3,a2
a0000a7c:	00d72023          	sw	a3,0(a4)
a0000a80:	00470713          	addi	a4,a4,4
a0000a84:	06c10693          	addi	a3,sp,108
a0000a88:	00478793          	addi	a5,a5,4
a0000a8c:	fce694e3          	bne	a3,a4,a0000a54 <bench_md5_run+0x118>
a0000a90:	00812483          	lw	s1,8(sp)
a0000a94:	02412403          	lw	s0,36(sp)
a0000a98:	00000693          	li	a3,0
a0000a9c:	00c12603          	lw	a2,12(sp)
a0000aa0:	00848733          	add	a4,s1,s0
a0000aa4:	00e12023          	sw	a4,0(sp)
a0000aa8:	00f00713          	li	a4,15
a0000aac:	01412283          	lw	t0,20(sp)
a0000ab0:	01012583          	lw	a1,16(sp)
a0000ab4:	00006317          	auipc	t1,0x6
a0000ab8:	3c830313          	addi	t1,t1,968 # a0006e7c <k+0x4>
a0000abc:	00006517          	auipc	a0,0x6
a0000ac0:	4c050513          	addi	a0,a0,1216 # a0006f7c <r+0x4>
a0000ac4:	00100393          	li	t2,1
a0000ac8:	00700793          	li	a5,7
a0000acc:	08d77463          	bgeu	a4,a3,a0000b54 <bench_md5_run+0x218>
a0000ad0:	00c5c733          	xor	a4,a1,a2
a0000ad4:	01f00493          	li	s1,31
a0000ad8:	00577733          	and	a4,a4,t0
a0000adc:	08d4e663          	bltu	s1,a3,a0000b68 <bench_md5_run+0x22c>
a0000ae0:	00b74733          	xor	a4,a4,a1
a0000ae4:	00f3f493          	andi	s1,t2,15
a0000ae8:	00249493          	slli	s1,s1,0x2
a0000aec:	02c10413          	addi	s0,sp,44
a0000af0:	04048493          	addi	s1,s1,64
a0000af4:	008484b3          	add	s1,s1,s0
a0000af8:	00012403          	lw	s0,0(sp)
a0000afc:	fc04a483          	lw	s1,-64(s1)
a0000b00:	00870733          	add	a4,a4,s0
a0000b04:	00970733          	add	a4,a4,s1
a0000b08:	40f00433          	neg	s0,a5
a0000b0c:	00f717b3          	sll	a5,a4,a5
a0000b10:	00875733          	srl	a4,a4,s0
a0000b14:	00e7e733          	or	a4,a5,a4
a0000b18:	00c70733          	add	a4,a4,a2
a0000b1c:	00032403          	lw	s0,0(t1)
a0000b20:	00028493          	mv	s1,t0
a0000b24:	00058293          	mv	t0,a1
a0000b28:	00060593          	mv	a1,a2
a0000b2c:	00070613          	mv	a2,a4
a0000b30:	00848733          	add	a4,s1,s0
a0000b34:	00e12023          	sw	a4,0(sp)
a0000b38:	00168693          	addi	a3,a3,1
a0000b3c:	00f00713          	li	a4,15
a0000b40:	00052783          	lw	a5,0(a0)
a0000b44:	00430313          	addi	t1,t1,4
a0000b48:	00450513          	addi	a0,a0,4
a0000b4c:	00538393          	addi	t2,t2,5
a0000b50:	f8d760e3          	bltu	a4,a3,a0000ad0 <bench_md5_run+0x194>
a0000b54:	0055c733          	xor	a4,a1,t0
a0000b58:	00c77733          	and	a4,a4,a2
a0000b5c:	00574733          	xor	a4,a4,t0
a0000b60:	00068493          	mv	s1,a3
a0000b64:	f85ff06f          	j	a0000ae8 <bench_md5_run+0x1ac>
a0000b68:	0055c733          	xor	a4,a1,t0
a0000b6c:	00169493          	slli	s1,a3,0x1
a0000b70:	00d484b3          	add	s1,s1,a3
a0000b74:	00e12223          	sw	a4,4(sp)
a0000b78:	02f00713          	li	a4,47
a0000b7c:	00548493          	addi	s1,s1,5
a0000b80:	00d76a63          	bltu	a4,a3,a0000b94 <bench_md5_run+0x258>
a0000b84:	00412703          	lw	a4,4(sp)
a0000b88:	00f4f493          	andi	s1,s1,15
a0000b8c:	00c74733          	xor	a4,a4,a2
a0000b90:	f59ff06f          	j	a0000ae8 <bench_md5_run+0x1ac>
a0000b94:	00369493          	slli	s1,a3,0x3
a0000b98:	40d484b3          	sub	s1,s1,a3
a0000b9c:	00f4f493          	andi	s1,s1,15
a0000ba0:	00249493          	slli	s1,s1,0x2
a0000ba4:	02c10413          	addi	s0,sp,44
a0000ba8:	04048493          	addi	s1,s1,64
a0000bac:	008484b3          	add	s1,s1,s0
a0000bb0:	fff2c713          	not	a4,t0
a0000bb4:	00012403          	lw	s0,0(sp)
a0000bb8:	fc04a483          	lw	s1,-64(s1)
a0000bbc:	00c76733          	or	a4,a4,a2
a0000bc0:	00b74733          	xor	a4,a4,a1
a0000bc4:	00870733          	add	a4,a4,s0
a0000bc8:	00970733          	add	a4,a4,s1
a0000bcc:	40f00433          	neg	s0,a5
a0000bd0:	00f717b3          	sll	a5,a4,a5
a0000bd4:	00875733          	srl	a4,a4,s0
a0000bd8:	00f76733          	or	a4,a4,a5
a0000bdc:	03f00793          	li	a5,63
a0000be0:	00c70733          	add	a4,a4,a2
a0000be4:	f2f69ce3          	bne	a3,a5,a0000b1c <bench_md5_run+0x1e0>
a0000be8:	00812683          	lw	a3,8(sp)
a0000bec:	01812783          	lw	a5,24(sp)
a0000bf0:	005686b3          	add	a3,a3,t0
a0000bf4:	00d12423          	sw	a3,8(sp)
a0000bf8:	00c12683          	lw	a3,12(sp)
a0000bfc:	04078793          	addi	a5,a5,64
a0000c00:	00f12c23          	sw	a5,24(sp)
a0000c04:	00e68733          	add	a4,a3,a4
a0000c08:	00e12623          	sw	a4,12(sp)
a0000c0c:	01012703          	lw	a4,16(sp)
a0000c10:	00c70733          	add	a4,a4,a2
a0000c14:	00e12823          	sw	a4,16(sp)
a0000c18:	01412703          	lw	a4,20(sp)
a0000c1c:	00b70733          	add	a4,a4,a1
a0000c20:	00e12a23          	sw	a4,20(sp)
a0000c24:	02012703          	lw	a4,32(sp)
a0000c28:	e0e7eee3          	bltu	a5,a4,a0000a44 <bench_md5_run+0x108>
a0000c2c:	00812783          	lw	a5,8(sp)
a0000c30:	00c12683          	lw	a3,12(sp)
a0000c34:	01412703          	lw	a4,20(sp)
a0000c38:	0087d493          	srli	s1,a5,0x8
a0000c3c:	0107d413          	srli	s0,a5,0x10
a0000c40:	0187d393          	srli	t2,a5,0x18
a0000c44:	01012783          	lw	a5,16(sp)
a0000c48:	0086d293          	srli	t0,a3,0x8
a0000c4c:	0106d313          	srli	t1,a3,0x10
a0000c50:	0186d513          	srli	a0,a3,0x18
a0000c54:	0087d593          	srli	a1,a5,0x8
a0000c58:	0187d693          	srli	a3,a5,0x18
a0000c5c:	0107d613          	srli	a2,a5,0x10
a0000c60:	00875793          	srli	a5,a4,0x8
a0000c64:	00f12223          	sw	a5,4(sp)
a0000c68:	01075793          	srli	a5,a4,0x10
a0000c6c:	00f12c23          	sw	a5,24(sp)
a0000c70:	01875793          	srli	a5,a4,0x18
a0000c74:	00f12e23          	sw	a5,28(sp)
a0000c78:	00812703          	lw	a4,8(sp)
a0000c7c:	02812783          	lw	a5,40(sp)
a0000c80:	00e78023          	sb	a4,0(a5)
a0000c84:	00c12703          	lw	a4,12(sp)
a0000c88:	00d785a3          	sb	a3,11(a5)
a0000c8c:	00412683          	lw	a3,4(sp)
a0000c90:	00e78223          	sb	a4,4(a5)
a0000c94:	01012703          	lw	a4,16(sp)
a0000c98:	009780a3          	sb	s1,1(a5)
a0000c9c:	00878123          	sb	s0,2(a5)
a0000ca0:	00e78423          	sb	a4,8(a5)
a0000ca4:	01412703          	lw	a4,20(sp)
a0000ca8:	007781a3          	sb	t2,3(a5)
a0000cac:	005782a3          	sb	t0,5(a5)
a0000cb0:	00e78623          	sb	a4,12(a5)
a0000cb4:	01812703          	lw	a4,24(sp)
a0000cb8:	00678323          	sb	t1,6(a5)
a0000cbc:	00a783a3          	sb	a0,7(a5)
a0000cc0:	00e78723          	sb	a4,14(a5)
a0000cc4:	01c12703          	lw	a4,28(sp)
a0000cc8:	00b784a3          	sb	a1,9(a5)
a0000ccc:	00c78523          	sb	a2,10(a5)
a0000cd0:	00d786a3          	sb	a3,13(a5)
a0000cd4:	00e787a3          	sb	a4,15(a5)
a0000cd8:	07012403          	lw	s0,112(sp)
a0000cdc:	06c12483          	lw	s1,108(sp)
a0000ce0:	07410113          	addi	sp,sp,116
a0000ce4:	00008067          	ret
a0000ce8:	01c12703          	lw	a4,28(sp)
a0000cec:	00078693          	mv	a3,a5
a0000cf0:	02f12023          	sw	a5,32(sp)
a0000cf4:	f8000793          	li	a5,-128
a0000cf8:	00f58023          	sb	a5,0(a1)
a0000cfc:	00d70733          	add	a4,a4,a3
a0000d00:	cc1ff06f          	j	a00009c0 <bench_md5_run+0x84>
a0000d04:	01c12783          	lw	a5,28(sp)
a0000d08:	00d78733          	add	a4,a5,a3
a0000d0c:	cb5ff06f          	j	a00009c0 <bench_md5_run+0x84>

a0000d10 <bench_md5_validate>:
a0000d10:	00007517          	auipc	a0,0x7
a0000d14:	41852503          	lw	a0,1048(a0) # a0008128 <digest>
a0000d18:	ff410113          	addi	sp,sp,-12
a0000d1c:	01050593          	addi	a1,a0,16
a0000d20:	00112423          	sw	ra,8(sp)
a0000d24:	5f0040ef          	jal	ra,a0005314 <checksum>
a0000d28:	00007797          	auipc	a5,0x7
a0000d2c:	4787a783          	lw	a5,1144(a5) # a00081a0 <setting>
a0000d30:	00c7a783          	lw	a5,12(a5)
a0000d34:	00812083          	lw	ra,8(sp)
a0000d38:	40a78533          	sub	a0,a5,a0
a0000d3c:	00153513          	seqz	a0,a0
a0000d40:	00c10113          	addi	sp,sp,12
a0000d44:	00008067          	ret

a0000d48 <_ZN5Dinic3DFSEii>:
a0000d48:	00c52783          	lw	a5,12(a0)
a0000d4c:	f2c10113          	addi	sp,sp,-212
a0000d50:	0c112823          	sw	ra,208(sp)
a0000d54:	0c812623          	sw	s0,204(sp)
a0000d58:	0c912423          	sw	s1,200(sp)
a0000d5c:	02f12223          	sw	a5,36(sp)
a0000d60:	04c12023          	sw	a2,64(sp)
a0000d64:	60b78c63          	beq	a5,a1,a000137c <_ZN5Dinic3DFSEii+0x634>
a0000d68:	02012e23          	sw	zero,60(sp)
a0000d6c:	60060c63          	beqz	a2,a0001384 <_ZN5Dinic3DFSEii+0x63c>
a0000d70:	02052703          	lw	a4,32(a0)
a0000d74:	00259693          	slli	a3,a1,0x2
a0000d78:	00d12e23          	sw	a3,28(sp)
a0000d7c:	04e12a23          	sw	a4,84(sp)
a0000d80:	00d70733          	add	a4,a4,a3
a0000d84:	00072283          	lw	t0,0(a4)
a0000d88:	fff00793          	li	a5,-1
a0000d8c:	00050313          	mv	t1,a0
a0000d90:	5ef28a63          	beq	t0,a5,a0001384 <_ZN5Dinic3DFSEii+0x63c>
a0000d94:	fff00393          	li	t2,-1
a0000d98:	00512023          	sw	t0,0(sp)
a0000d9c:	0200006f          	j	a0000dbc <_ZN5Dinic3DFSEii+0x74>
a0000da0:	00012703          	lw	a4,0(sp)
a0000da4:	01832783          	lw	a5,24(t1)
a0000da8:	00271713          	slli	a4,a4,0x2
a0000dac:	00e787b3          	add	a5,a5,a4
a0000db0:	0007a783          	lw	a5,0(a5)
a0000db4:	00f12023          	sw	a5,0(sp)
a0000db8:	5c778663          	beq	a5,t2,a0001384 <_ZN5Dinic3DFSEii+0x63c>
a0000dbc:	00012783          	lw	a5,0(sp)
a0000dc0:	01032483          	lw	s1,16(t1)
a0000dc4:	01c32283          	lw	t0,28(t1)
a0000dc8:	00479793          	slli	a5,a5,0x4
a0000dcc:	00f487b3          	add	a5,s1,a5
a0000dd0:	0047a703          	lw	a4,4(a5)
a0000dd4:	00f12a23          	sw	a5,20(sp)
a0000dd8:	01c12783          	lw	a5,28(sp)
a0000ddc:	00f287b3          	add	a5,t0,a5
a0000de0:	0007a603          	lw	a2,0(a5)
a0000de4:	00271793          	slli	a5,a4,0x2
a0000de8:	00f286b3          	add	a3,t0,a5
a0000dec:	00d12823          	sw	a3,16(sp)
a0000df0:	0006a683          	lw	a3,0(a3)
a0000df4:	00160613          	addi	a2,a2,1
a0000df8:	fad614e3          	bne	a2,a3,a0000da0 <_ZN5Dinic3DFSEii+0x58>
a0000dfc:	01412603          	lw	a2,20(sp)
a0000e00:	00862583          	lw	a1,8(a2)
a0000e04:	00c62603          	lw	a2,12(a2)
a0000e08:	40c58633          	sub	a2,a1,a2
a0000e0c:	04012583          	lw	a1,64(sp)
a0000e10:	02c12823          	sw	a2,48(sp)
a0000e14:	00c5d463          	bge	a1,a2,a0000e1c <_ZN5Dinic3DFSEii+0xd4>
a0000e18:	02b12823          	sw	a1,48(sp)
a0000e1c:	02412603          	lw	a2,36(sp)
a0000e20:	6ae60063          	beq	a2,a4,a00014c0 <_ZN5Dinic3DFSEii+0x778>
a0000e24:	03012703          	lw	a4,48(sp)
a0000e28:	f6070ce3          	beqz	a4,a0000da0 <_ZN5Dinic3DFSEii+0x58>
a0000e2c:	05412703          	lw	a4,84(sp)
a0000e30:	00f707b3          	add	a5,a4,a5
a0000e34:	0007a783          	lw	a5,0(a5)
a0000e38:	00f12423          	sw	a5,8(sp)
a0000e3c:	f67782e3          	beq	a5,t2,a0000da0 <_ZN5Dinic3DFSEii+0x58>
a0000e40:	00512223          	sw	t0,4(sp)
a0000e44:	04012823          	sw	zero,80(sp)
a0000e48:	00048293          	mv	t0,s1
a0000e4c:	00068613          	mv	a2,a3
a0000e50:	0280006f          	j	a0000e78 <_ZN5Dinic3DFSEii+0x130>
a0000e54:	00812703          	lw	a4,8(sp)
a0000e58:	01832783          	lw	a5,24(t1)
a0000e5c:	00271713          	slli	a4,a4,0x2
a0000e60:	00e787b3          	add	a5,a5,a4
a0000e64:	0007a783          	lw	a5,0(a5)
a0000e68:	00f12423          	sw	a5,8(sp)
a0000e6c:	58778a63          	beq	a5,t2,a0001400 <_ZN5Dinic3DFSEii+0x6b8>
a0000e70:	01012783          	lw	a5,16(sp)
a0000e74:	0007a603          	lw	a2,0(a5)
a0000e78:	00812783          	lw	a5,8(sp)
a0000e7c:	00412683          	lw	a3,4(sp)
a0000e80:	00160613          	addi	a2,a2,1
a0000e84:	00479793          	slli	a5,a5,0x4
a0000e88:	00f287b3          	add	a5,t0,a5
a0000e8c:	0047a703          	lw	a4,4(a5)
a0000e90:	02f12423          	sw	a5,40(sp)
a0000e94:	00271793          	slli	a5,a4,0x2
a0000e98:	00f686b3          	add	a3,a3,a5
a0000e9c:	00d12c23          	sw	a3,24(sp)
a0000ea0:	0006a683          	lw	a3,0(a3)
a0000ea4:	fad618e3          	bne	a2,a3,a0000e54 <_ZN5Dinic3DFSEii+0x10c>
a0000ea8:	02812603          	lw	a2,40(sp)
a0000eac:	00862583          	lw	a1,8(a2)
a0000eb0:	00c62603          	lw	a2,12(a2)
a0000eb4:	40c58633          	sub	a2,a1,a2
a0000eb8:	03012583          	lw	a1,48(sp)
a0000ebc:	04c12223          	sw	a2,68(sp)
a0000ec0:	00c5d463          	bge	a1,a2,a0000ec8 <_ZN5Dinic3DFSEii+0x180>
a0000ec4:	04b12223          	sw	a1,68(sp)
a0000ec8:	02412603          	lw	a2,36(sp)
a0000ecc:	4ce60863          	beq	a2,a4,a000139c <_ZN5Dinic3DFSEii+0x654>
a0000ed0:	04412703          	lw	a4,68(sp)
a0000ed4:	f80700e3          	beqz	a4,a0000e54 <_ZN5Dinic3DFSEii+0x10c>
a0000ed8:	05412703          	lw	a4,84(sp)
a0000edc:	00f707b3          	add	a5,a4,a5
a0000ee0:	0007a783          	lw	a5,0(a5)
a0000ee4:	00f12623          	sw	a5,12(sp)
a0000ee8:	f67786e3          	beq	a5,t2,a0000e54 <_ZN5Dinic3DFSEii+0x10c>
a0000eec:	06012223          	sw	zero,100(sp)
a0000ef0:	00068613          	mv	a2,a3
a0000ef4:	0280006f          	j	a0000f1c <_ZN5Dinic3DFSEii+0x1d4>
a0000ef8:	00c12703          	lw	a4,12(sp)
a0000efc:	01832783          	lw	a5,24(t1)
a0000f00:	00271713          	slli	a4,a4,0x2
a0000f04:	00e787b3          	add	a5,a5,a4
a0000f08:	0007a783          	lw	a5,0(a5)
a0000f0c:	00f12623          	sw	a5,12(sp)
a0000f10:	48778a63          	beq	a5,t2,a00013a4 <_ZN5Dinic3DFSEii+0x65c>
a0000f14:	01812783          	lw	a5,24(sp)
a0000f18:	0007a603          	lw	a2,0(a5)
a0000f1c:	00c12783          	lw	a5,12(sp)
a0000f20:	00412683          	lw	a3,4(sp)
a0000f24:	00160613          	addi	a2,a2,1
a0000f28:	00479793          	slli	a5,a5,0x4
a0000f2c:	00f287b3          	add	a5,t0,a5
a0000f30:	0047a703          	lw	a4,4(a5)
a0000f34:	02f12a23          	sw	a5,52(sp)
a0000f38:	00271793          	slli	a5,a4,0x2
a0000f3c:	00f686b3          	add	a3,a3,a5
a0000f40:	02d12623          	sw	a3,44(sp)
a0000f44:	0006a683          	lw	a3,0(a3)
a0000f48:	fad618e3          	bne	a2,a3,a0000ef8 <_ZN5Dinic3DFSEii+0x1b0>
a0000f4c:	03412603          	lw	a2,52(sp)
a0000f50:	00862583          	lw	a1,8(a2)
a0000f54:	00c62603          	lw	a2,12(a2)
a0000f58:	40c58633          	sub	a2,a1,a2
a0000f5c:	04412583          	lw	a1,68(sp)
a0000f60:	04c12c23          	sw	a2,88(sp)
a0000f64:	00c5d463          	bge	a1,a2,a0000f6c <_ZN5Dinic3DFSEii+0x224>
a0000f68:	04b12c23          	sw	a1,88(sp)
a0000f6c:	02412603          	lw	a2,36(sp)
a0000f70:	62e60463          	beq	a2,a4,a0001598 <_ZN5Dinic3DFSEii+0x850>
a0000f74:	05812703          	lw	a4,88(sp)
a0000f78:	f80700e3          	beqz	a4,a0000ef8 <_ZN5Dinic3DFSEii+0x1b0>
a0000f7c:	05412703          	lw	a4,84(sp)
a0000f80:	00f707b3          	add	a5,a4,a5
a0000f84:	0007a783          	lw	a5,0(a5)
a0000f88:	f67788e3          	beq	a5,t2,a0000ef8 <_ZN5Dinic3DFSEii+0x1b0>
a0000f8c:	00030413          	mv	s0,t1
a0000f90:	06012a23          	sw	zero,116(sp)
a0000f94:	00068613          	mv	a2,a3
a0000f98:	00078313          	mv	t1,a5
a0000f9c:	0200006f          	j	a0000fbc <_ZN5Dinic3DFSEii+0x274>
a0000fa0:	01842783          	lw	a5,24(s0)
a0000fa4:	00231713          	slli	a4,t1,0x2
a0000fa8:	00e787b3          	add	a5,a5,a4
a0000fac:	0007a303          	lw	t1,0(a5)
a0000fb0:	4a730a63          	beq	t1,t2,a0001464 <_ZN5Dinic3DFSEii+0x71c>
a0000fb4:	02c12783          	lw	a5,44(sp)
a0000fb8:	0007a603          	lw	a2,0(a5)
a0000fbc:	00431793          	slli	a5,t1,0x4
a0000fc0:	00f287b3          	add	a5,t0,a5
a0000fc4:	0047a703          	lw	a4,4(a5)
a0000fc8:	00412683          	lw	a3,4(sp)
a0000fcc:	04f12423          	sw	a5,72(sp)
a0000fd0:	00271793          	slli	a5,a4,0x2
a0000fd4:	00f686b3          	add	a3,a3,a5
a0000fd8:	02d12c23          	sw	a3,56(sp)
a0000fdc:	0006a683          	lw	a3,0(a3)
a0000fe0:	00160613          	addi	a2,a2,1
a0000fe4:	fad61ee3          	bne	a2,a3,a0000fa0 <_ZN5Dinic3DFSEii+0x258>
a0000fe8:	04812603          	lw	a2,72(sp)
a0000fec:	00862583          	lw	a1,8(a2)
a0000ff0:	00c62603          	lw	a2,12(a2)
a0000ff4:	40c58633          	sub	a2,a1,a2
a0000ff8:	05812583          	lw	a1,88(sp)
a0000ffc:	06c12423          	sw	a2,104(sp)
a0001000:	44c5ce63          	blt	a1,a2,a000145c <_ZN5Dinic3DFSEii+0x714>
a0001004:	02412603          	lw	a2,36(sp)
a0001008:	66e60063          	beq	a2,a4,a0001668 <_ZN5Dinic3DFSEii+0x920>
a000100c:	06812703          	lw	a4,104(sp)
a0001010:	f80708e3          	beqz	a4,a0000fa0 <_ZN5Dinic3DFSEii+0x258>
a0001014:	05412703          	lw	a4,84(sp)
a0001018:	00f707b3          	add	a5,a4,a5
a000101c:	0007a783          	lw	a5,0(a5)
a0001020:	f87780e3          	beq	a5,t2,a0000fa0 <_ZN5Dinic3DFSEii+0x258>
a0001024:	02512023          	sw	t0,32(sp)
a0001028:	08612e23          	sw	t1,156(sp)
a000102c:	08012023          	sw	zero,128(sp)
a0001030:	00078313          	mv	t1,a5
a0001034:	00040293          	mv	t0,s0
a0001038:	0200006f          	j	a0001058 <_ZN5Dinic3DFSEii+0x310>
a000103c:	0182a783          	lw	a5,24(t0)
a0001040:	00231713          	slli	a4,t1,0x2
a0001044:	00e787b3          	add	a5,a5,a4
a0001048:	0007a303          	lw	t1,0(a5)
a000104c:	48730063          	beq	t1,t2,a00014cc <_ZN5Dinic3DFSEii+0x784>
a0001050:	03812783          	lw	a5,56(sp)
a0001054:	0007a683          	lw	a3,0(a5)
a0001058:	02012703          	lw	a4,32(sp)
a000105c:	00431793          	slli	a5,t1,0x4
a0001060:	00168613          	addi	a2,a3,1
a0001064:	00f707b3          	add	a5,a4,a5
a0001068:	0047a703          	lw	a4,4(a5)
a000106c:	00412683          	lw	a3,4(sp)
a0001070:	04f12e23          	sw	a5,92(sp)
a0001074:	00271793          	slli	a5,a4,0x2
a0001078:	00f686b3          	add	a3,a3,a5
a000107c:	04d12623          	sw	a3,76(sp)
a0001080:	0006a683          	lw	a3,0(a3)
a0001084:	fad61ce3          	bne	a2,a3,a000103c <_ZN5Dinic3DFSEii+0x2f4>
a0001088:	05c12603          	lw	a2,92(sp)
a000108c:	00862583          	lw	a1,8(a2)
a0001090:	00c62603          	lw	a2,12(a2)
a0001094:	40c58633          	sub	a2,a1,a2
a0001098:	06812583          	lw	a1,104(sp)
a000109c:	06c12c23          	sw	a2,120(sp)
a00010a0:	00c5d463          	bge	a1,a2,a00010a8 <_ZN5Dinic3DFSEii+0x360>
a00010a4:	06b12c23          	sw	a1,120(sp)
a00010a8:	02412603          	lw	a2,36(sp)
a00010ac:	62e60463          	beq	a2,a4,a00016d4 <_ZN5Dinic3DFSEii+0x98c>
a00010b0:	07812703          	lw	a4,120(sp)
a00010b4:	f80704e3          	beqz	a4,a000103c <_ZN5Dinic3DFSEii+0x2f4>
a00010b8:	05412703          	lw	a4,84(sp)
a00010bc:	00f707b3          	add	a5,a4,a5
a00010c0:	0007a783          	lw	a5,0(a5)
a00010c4:	f6778ce3          	beq	a5,t2,a000103c <_ZN5Dinic3DFSEii+0x2f4>
a00010c8:	0a612023          	sw	t1,160(sp)
a00010cc:	08012423          	sw	zero,136(sp)
a00010d0:	00078313          	mv	t1,a5
a00010d4:	0200006f          	j	a00010f4 <_ZN5Dinic3DFSEii+0x3ac>
a00010d8:	0182a783          	lw	a5,24(t0)
a00010dc:	00231713          	slli	a4,t1,0x2
a00010e0:	00e787b3          	add	a5,a5,a4
a00010e4:	0007a303          	lw	t1,0(a5)
a00010e8:	44730463          	beq	t1,t2,a0001530 <_ZN5Dinic3DFSEii+0x7e8>
a00010ec:	04c12783          	lw	a5,76(sp)
a00010f0:	0007a683          	lw	a3,0(a5)
a00010f4:	02012703          	lw	a4,32(sp)
a00010f8:	00431793          	slli	a5,t1,0x4
a00010fc:	00168613          	addi	a2,a3,1
a0001100:	00f707b3          	add	a5,a4,a5
a0001104:	0047a703          	lw	a4,4(a5)
a0001108:	00412683          	lw	a3,4(sp)
a000110c:	06f12623          	sw	a5,108(sp)
a0001110:	00271793          	slli	a5,a4,0x2
a0001114:	00f686b3          	add	a3,a3,a5
a0001118:	06d12023          	sw	a3,96(sp)
a000111c:	0006a683          	lw	a3,0(a3)
a0001120:	fad61ce3          	bne	a2,a3,a00010d8 <_ZN5Dinic3DFSEii+0x390>
a0001124:	06c12603          	lw	a2,108(sp)
a0001128:	00862583          	lw	a1,8(a2)
a000112c:	00c62603          	lw	a2,12(a2)
a0001130:	40c58633          	sub	a2,a1,a2
a0001134:	07812583          	lw	a1,120(sp)
a0001138:	08c12223          	sw	a2,132(sp)
a000113c:	00c5d463          	bge	a1,a2,a0001144 <_ZN5Dinic3DFSEii+0x3fc>
a0001140:	08b12223          	sw	a1,132(sp)
a0001144:	02412603          	lw	a2,36(sp)
a0001148:	5ae60063          	beq	a2,a4,a00016e8 <_ZN5Dinic3DFSEii+0x9a0>
a000114c:	08412703          	lw	a4,132(sp)
a0001150:	f80704e3          	beqz	a4,a00010d8 <_ZN5Dinic3DFSEii+0x390>
a0001154:	05412703          	lw	a4,84(sp)
a0001158:	00f707b3          	add	a5,a4,a5
a000115c:	0007a783          	lw	a5,0(a5)
a0001160:	f6778ce3          	beq	a5,t2,a00010d8 <_ZN5Dinic3DFSEii+0x390>
a0001164:	0a612223          	sw	t1,164(sp)
a0001168:	08012823          	sw	zero,144(sp)
a000116c:	00078313          	mv	t1,a5
a0001170:	0200006f          	j	a0001190 <_ZN5Dinic3DFSEii+0x448>
a0001174:	0182a783          	lw	a5,24(t0)
a0001178:	00231713          	slli	a4,t1,0x2
a000117c:	00e787b3          	add	a5,a5,a4
a0001180:	0007a303          	lw	t1,0(a5)
a0001184:	42730063          	beq	t1,t2,a00015a4 <_ZN5Dinic3DFSEii+0x85c>
a0001188:	06012783          	lw	a5,96(sp)
a000118c:	0007a683          	lw	a3,0(a5)
a0001190:	02012703          	lw	a4,32(sp)
a0001194:	00431793          	slli	a5,t1,0x4
a0001198:	00168613          	addi	a2,a3,1
a000119c:	00f707b3          	add	a5,a4,a5
a00011a0:	0047a703          	lw	a4,4(a5)
a00011a4:	00412683          	lw	a3,4(sp)
a00011a8:	06f12e23          	sw	a5,124(sp)
a00011ac:	00271793          	slli	a5,a4,0x2
a00011b0:	00f686b3          	add	a3,a3,a5
a00011b4:	06d12823          	sw	a3,112(sp)
a00011b8:	0006a683          	lw	a3,0(a3)
a00011bc:	fad61ce3          	bne	a2,a3,a0001174 <_ZN5Dinic3DFSEii+0x42c>
a00011c0:	07c12603          	lw	a2,124(sp)
a00011c4:	00862583          	lw	a1,8(a2)
a00011c8:	00c62603          	lw	a2,12(a2)
a00011cc:	40c58633          	sub	a2,a1,a2
a00011d0:	08412583          	lw	a1,132(sp)
a00011d4:	08c12623          	sw	a2,140(sp)
a00011d8:	00c5d463          	bge	a1,a2,a00011e0 <_ZN5Dinic3DFSEii+0x498>
a00011dc:	08b12623          	sw	a1,140(sp)
a00011e0:	02412603          	lw	a2,36(sp)
a00011e4:	50e60863          	beq	a2,a4,a00016f4 <_ZN5Dinic3DFSEii+0x9ac>
a00011e8:	08c12703          	lw	a4,140(sp)
a00011ec:	f80704e3          	beqz	a4,a0001174 <_ZN5Dinic3DFSEii+0x42c>
a00011f0:	05412703          	lw	a4,84(sp)
a00011f4:	00f707b3          	add	a5,a4,a5
a00011f8:	0007a703          	lw	a4,0(a5)
a00011fc:	f6770ce3          	beq	a4,t2,a0001174 <_ZN5Dinic3DFSEii+0x42c>
a0001200:	0a612e23          	sw	t1,188(sp)
a0001204:	08012a23          	sw	zero,148(sp)
a0001208:	02012303          	lw	t1,32(sp)
a000120c:	00070413          	mv	s0,a4
a0001210:	0200006f          	j	a0001230 <_ZN5Dinic3DFSEii+0x4e8>
a0001214:	0182a783          	lw	a5,24(t0)
a0001218:	00241413          	slli	s0,s0,0x2
a000121c:	008787b3          	add	a5,a5,s0
a0001220:	0007a403          	lw	s0,0(a5)
a0001224:	44740863          	beq	s0,t2,a0001674 <_ZN5Dinic3DFSEii+0x92c>
a0001228:	07012783          	lw	a5,112(sp)
a000122c:	0007a683          	lw	a3,0(a5)
a0001230:	00441793          	slli	a5,s0,0x4
a0001234:	00f307b3          	add	a5,t1,a5
a0001238:	0047a583          	lw	a1,4(a5)
a000123c:	00168513          	addi	a0,a3,1
a0001240:	00412683          	lw	a3,4(sp)
a0001244:	00259713          	slli	a4,a1,0x2
a0001248:	00e686b3          	add	a3,a3,a4
a000124c:	0006a603          	lw	a2,0(a3)
a0001250:	fcc512e3          	bne	a0,a2,a0001214 <_ZN5Dinic3DFSEii+0x4cc>
a0001254:	0087a483          	lw	s1,8(a5)
a0001258:	00c7a503          	lw	a0,12(a5)
a000125c:	40a48533          	sub	a0,s1,a0
a0001260:	08c12483          	lw	s1,140(sp)
a0001264:	08a12c23          	sw	a0,152(sp)
a0001268:	00a4d463          	bge	s1,a0,a0001270 <_ZN5Dinic3DFSEii+0x528>
a000126c:	08912c23          	sw	s1,152(sp)
a0001270:	02412503          	lw	a0,36(sp)
a0001274:	38b50e63          	beq	a0,a1,a0001610 <_ZN5Dinic3DFSEii+0x8c8>
a0001278:	09812583          	lw	a1,152(sp)
a000127c:	f8058ce3          	beqz	a1,a0001214 <_ZN5Dinic3DFSEii+0x4cc>
a0001280:	05412503          	lw	a0,84(sp)
a0001284:	00e50733          	add	a4,a0,a4
a0001288:	00072483          	lw	s1,0(a4)
a000128c:	f87484e3          	beq	s1,t2,a0001214 <_ZN5Dinic3DFSEii+0x4cc>
a0001290:	0c812223          	sw	s0,196(sp)
a0001294:	00412703          	lw	a4,4(sp)
a0001298:	00030413          	mv	s0,t1
a000129c:	08012c23          	sw	zero,152(sp)
a00012a0:	0cf12023          	sw	a5,192(sp)
a00012a4:	00058313          	mv	t1,a1
a00012a8:	01c0006f          	j	a00012c4 <_ZN5Dinic3DFSEii+0x57c>
a00012ac:	0182a783          	lw	a5,24(t0)
a00012b0:	00249493          	slli	s1,s1,0x2
a00012b4:	009787b3          	add	a5,a5,s1
a00012b8:	0007a483          	lw	s1,0(a5)
a00012bc:	34748463          	beq	s1,t2,a0001604 <_ZN5Dinic3DFSEii+0x8bc>
a00012c0:	0006a603          	lw	a2,0(a3)
a00012c4:	00449793          	slli	a5,s1,0x4
a00012c8:	00f407b3          	add	a5,s0,a5
a00012cc:	0047a583          	lw	a1,4(a5)
a00012d0:	00160513          	addi	a0,a2,1
a00012d4:	00259613          	slli	a2,a1,0x2
a00012d8:	00c70633          	add	a2,a4,a2
a00012dc:	00062603          	lw	a2,0(a2)
a00012e0:	fcc516e3          	bne	a0,a2,a00012ac <_ZN5Dinic3DFSEii+0x564>
a00012e4:	0087a603          	lw	a2,8(a5)
a00012e8:	00c7a083          	lw	ra,12(a5)
a00012ec:	00028513          	mv	a0,t0
a00012f0:	40160633          	sub	a2,a2,ra
a00012f4:	3ec34663          	blt	t1,a2,a00016e0 <_ZN5Dinic3DFSEii+0x998>
a00012f8:	0a512a23          	sw	t0,180(sp)
a00012fc:	0a612823          	sw	t1,176(sp)
a0001300:	0ad12623          	sw	a3,172(sp)
a0001304:	0ae12423          	sw	a4,168(sp)
a0001308:	0af12c23          	sw	a5,184(sp)
a000130c:	a3dff0ef          	jal	ra,a0000d48 <_ZN5Dinic3DFSEii>
a0001310:	0014c613          	xori	a2,s1,1
a0001314:	00461613          	slli	a2,a2,0x4
a0001318:	0a812703          	lw	a4,168(sp)
a000131c:	0ac12683          	lw	a3,172(sp)
a0001320:	0b012303          	lw	t1,176(sp)
a0001324:	0b412283          	lw	t0,180(sp)
a0001328:	00c40633          	add	a2,s0,a2
a000132c:	fff00393          	li	t2,-1
a0001330:	f6a05ee3          	blez	a0,a00012ac <_ZN5Dinic3DFSEii+0x564>
a0001334:	0b812783          	lw	a5,184(sp)
a0001338:	40a30333          	sub	t1,t1,a0
a000133c:	00c7a583          	lw	a1,12(a5)
a0001340:	0ab12423          	sw	a1,168(sp)
a0001344:	09812583          	lw	a1,152(sp)
a0001348:	00a585b3          	add	a1,a1,a0
a000134c:	08b12c23          	sw	a1,152(sp)
a0001350:	0a812583          	lw	a1,168(sp)
a0001354:	00a585b3          	add	a1,a1,a0
a0001358:	00b7a623          	sw	a1,12(a5)
a000135c:	00c62783          	lw	a5,12(a2)
a0001360:	40a787b3          	sub	a5,a5,a0
a0001364:	00f62623          	sw	a5,12(a2)
a0001368:	f40312e3          	bnez	t1,a00012ac <_ZN5Dinic3DFSEii+0x564>
a000136c:	00040313          	mv	t1,s0
a0001370:	0c012783          	lw	a5,192(sp)
a0001374:	0c412403          	lw	s0,196(sp)
a0001378:	2a00006f          	j	a0001618 <_ZN5Dinic3DFSEii+0x8d0>
a000137c:	04012783          	lw	a5,64(sp)
a0001380:	02f12e23          	sw	a5,60(sp)
a0001384:	0d012083          	lw	ra,208(sp)
a0001388:	0cc12403          	lw	s0,204(sp)
a000138c:	03c12503          	lw	a0,60(sp)
a0001390:	0c812483          	lw	s1,200(sp)
a0001394:	0d410113          	addi	sp,sp,212
a0001398:	00008067          	ret
a000139c:	04412783          	lw	a5,68(sp)
a00013a0:	06f12223          	sw	a5,100(sp)
a00013a4:	06412783          	lw	a5,100(sp)
a00013a8:	aaf056e3          	blez	a5,a0000e54 <_ZN5Dinic3DFSEii+0x10c>
a00013ac:	02812603          	lw	a2,40(sp)
a00013b0:	00812783          	lw	a5,8(sp)
a00013b4:	06412683          	lw	a3,100(sp)
a00013b8:	00c62703          	lw	a4,12(a2)
a00013bc:	0017c793          	xori	a5,a5,1
a00013c0:	00479793          	slli	a5,a5,0x4
a00013c4:	00d70733          	add	a4,a4,a3
a00013c8:	00e62623          	sw	a4,12(a2)
a00013cc:	00f287b3          	add	a5,t0,a5
a00013d0:	00c7a703          	lw	a4,12(a5)
a00013d4:	03012603          	lw	a2,48(sp)
a00013d8:	05012583          	lw	a1,80(sp)
a00013dc:	40d70733          	sub	a4,a4,a3
a00013e0:	40d60633          	sub	a2,a2,a3
a00013e4:	00d585b3          	add	a1,a1,a3
a00013e8:	02c12823          	sw	a2,48(sp)
a00013ec:	04b12823          	sw	a1,80(sp)
a00013f0:	00e7a623          	sw	a4,12(a5)
a00013f4:	a60610e3          	bnez	a2,a0000e54 <_ZN5Dinic3DFSEii+0x10c>
a00013f8:	00028493          	mv	s1,t0
a00013fc:	0100006f          	j	a000140c <_ZN5Dinic3DFSEii+0x6c4>
a0001400:	00028493          	mv	s1,t0
a0001404:	05012783          	lw	a5,80(sp)
a0001408:	98f05ce3          	blez	a5,a0000da0 <_ZN5Dinic3DFSEii+0x58>
a000140c:	01412603          	lw	a2,20(sp)
a0001410:	00012783          	lw	a5,0(sp)
a0001414:	05012683          	lw	a3,80(sp)
a0001418:	00c62703          	lw	a4,12(a2)
a000141c:	0017c793          	xori	a5,a5,1
a0001420:	00479793          	slli	a5,a5,0x4
a0001424:	00d70733          	add	a4,a4,a3
a0001428:	00e62623          	sw	a4,12(a2)
a000142c:	00f487b3          	add	a5,s1,a5
a0001430:	00c7a703          	lw	a4,12(a5)
a0001434:	04012603          	lw	a2,64(sp)
a0001438:	03c12583          	lw	a1,60(sp)
a000143c:	40d70733          	sub	a4,a4,a3
a0001440:	40d60633          	sub	a2,a2,a3
a0001444:	00d585b3          	add	a1,a1,a3
a0001448:	04c12023          	sw	a2,64(sp)
a000144c:	02b12e23          	sw	a1,60(sp)
a0001450:	00e7a623          	sw	a4,12(a5)
a0001454:	940616e3          	bnez	a2,a0000da0 <_ZN5Dinic3DFSEii+0x58>
a0001458:	f2dff06f          	j	a0001384 <_ZN5Dinic3DFSEii+0x63c>
a000145c:	06b12423          	sw	a1,104(sp)
a0001460:	ba5ff06f          	j	a0001004 <_ZN5Dinic3DFSEii+0x2bc>
a0001464:	00040313          	mv	t1,s0
a0001468:	07412783          	lw	a5,116(sp)
a000146c:	a8f056e3          	blez	a5,a0000ef8 <_ZN5Dinic3DFSEii+0x1b0>
a0001470:	03412603          	lw	a2,52(sp)
a0001474:	00c12783          	lw	a5,12(sp)
a0001478:	07412683          	lw	a3,116(sp)
a000147c:	00c62703          	lw	a4,12(a2)
a0001480:	0017c793          	xori	a5,a5,1
a0001484:	00479793          	slli	a5,a5,0x4
a0001488:	00d70733          	add	a4,a4,a3
a000148c:	00e62623          	sw	a4,12(a2)
a0001490:	00f287b3          	add	a5,t0,a5
a0001494:	00c7a703          	lw	a4,12(a5)
a0001498:	04412603          	lw	a2,68(sp)
a000149c:	06412583          	lw	a1,100(sp)
a00014a0:	40d70733          	sub	a4,a4,a3
a00014a4:	40d60633          	sub	a2,a2,a3
a00014a8:	00d585b3          	add	a1,a1,a3
a00014ac:	04c12223          	sw	a2,68(sp)
a00014b0:	06b12223          	sw	a1,100(sp)
a00014b4:	00e7a623          	sw	a4,12(a5)
a00014b8:	a40610e3          	bnez	a2,a0000ef8 <_ZN5Dinic3DFSEii+0x1b0>
a00014bc:	ef1ff06f          	j	a00013ac <_ZN5Dinic3DFSEii+0x664>
a00014c0:	03012783          	lw	a5,48(sp)
a00014c4:	04f12823          	sw	a5,80(sp)
a00014c8:	f3dff06f          	j	a0001404 <_ZN5Dinic3DFSEii+0x6bc>
a00014cc:	00028413          	mv	s0,t0
a00014d0:	09c12303          	lw	t1,156(sp)
a00014d4:	02012283          	lw	t0,32(sp)
a00014d8:	08012783          	lw	a5,128(sp)
a00014dc:	acf052e3          	blez	a5,a0000fa0 <_ZN5Dinic3DFSEii+0x258>
a00014e0:	04812603          	lw	a2,72(sp)
a00014e4:	08012683          	lw	a3,128(sp)
a00014e8:	00134793          	xori	a5,t1,1
a00014ec:	00c62703          	lw	a4,12(a2)
a00014f0:	00479793          	slli	a5,a5,0x4
a00014f4:	00f287b3          	add	a5,t0,a5
a00014f8:	00d70733          	add	a4,a4,a3
a00014fc:	00e62623          	sw	a4,12(a2)
a0001500:	00c7a703          	lw	a4,12(a5)
a0001504:	05812603          	lw	a2,88(sp)
a0001508:	07412583          	lw	a1,116(sp)
a000150c:	40d70733          	sub	a4,a4,a3
a0001510:	40d60633          	sub	a2,a2,a3
a0001514:	00d585b3          	add	a1,a1,a3
a0001518:	04c12c23          	sw	a2,88(sp)
a000151c:	06b12a23          	sw	a1,116(sp)
a0001520:	00e7a623          	sw	a4,12(a5)
a0001524:	a6061ee3          	bnez	a2,a0000fa0 <_ZN5Dinic3DFSEii+0x258>
a0001528:	00040313          	mv	t1,s0
a000152c:	f45ff06f          	j	a0001470 <_ZN5Dinic3DFSEii+0x728>
a0001530:	0a012303          	lw	t1,160(sp)
a0001534:	08812783          	lw	a5,136(sp)
a0001538:	b0f052e3          	blez	a5,a000103c <_ZN5Dinic3DFSEii+0x2f4>
a000153c:	05c12603          	lw	a2,92(sp)
a0001540:	08812683          	lw	a3,136(sp)
a0001544:	00134793          	xori	a5,t1,1
a0001548:	00c62703          	lw	a4,12(a2)
a000154c:	00479793          	slli	a5,a5,0x4
a0001550:	08012583          	lw	a1,128(sp)
a0001554:	00d70733          	add	a4,a4,a3
a0001558:	00e62623          	sw	a4,12(a2)
a000155c:	02012703          	lw	a4,32(sp)
a0001560:	06812603          	lw	a2,104(sp)
a0001564:	00d585b3          	add	a1,a1,a3
a0001568:	00f707b3          	add	a5,a4,a5
a000156c:	00c7a703          	lw	a4,12(a5)
a0001570:	40d60633          	sub	a2,a2,a3
a0001574:	06c12423          	sw	a2,104(sp)
a0001578:	40d70733          	sub	a4,a4,a3
a000157c:	08b12023          	sw	a1,128(sp)
a0001580:	00e7a623          	sw	a4,12(a5)
a0001584:	aa061ce3          	bnez	a2,a000103c <_ZN5Dinic3DFSEii+0x2f4>
a0001588:	00028413          	mv	s0,t0
a000158c:	09c12303          	lw	t1,156(sp)
a0001590:	02012283          	lw	t0,32(sp)
a0001594:	f4dff06f          	j	a00014e0 <_ZN5Dinic3DFSEii+0x798>
a0001598:	05812783          	lw	a5,88(sp)
a000159c:	06f12a23          	sw	a5,116(sp)
a00015a0:	ec9ff06f          	j	a0001468 <_ZN5Dinic3DFSEii+0x720>
a00015a4:	0a412303          	lw	t1,164(sp)
a00015a8:	09012783          	lw	a5,144(sp)
a00015ac:	b2f056e3          	blez	a5,a00010d8 <_ZN5Dinic3DFSEii+0x390>
a00015b0:	06c12603          	lw	a2,108(sp)
a00015b4:	09012683          	lw	a3,144(sp)
a00015b8:	00134793          	xori	a5,t1,1
a00015bc:	00c62703          	lw	a4,12(a2)
a00015c0:	00479793          	slli	a5,a5,0x4
a00015c4:	08812583          	lw	a1,136(sp)
a00015c8:	00d70733          	add	a4,a4,a3
a00015cc:	00e62623          	sw	a4,12(a2)
a00015d0:	02012703          	lw	a4,32(sp)
a00015d4:	07812603          	lw	a2,120(sp)
a00015d8:	00d585b3          	add	a1,a1,a3
a00015dc:	00f707b3          	add	a5,a4,a5
a00015e0:	00c7a703          	lw	a4,12(a5)
a00015e4:	40d60633          	sub	a2,a2,a3
a00015e8:	06c12c23          	sw	a2,120(sp)
a00015ec:	40d70733          	sub	a4,a4,a3
a00015f0:	08b12423          	sw	a1,136(sp)
a00015f4:	00e7a623          	sw	a4,12(a5)
a00015f8:	ae0610e3          	bnez	a2,a00010d8 <_ZN5Dinic3DFSEii+0x390>
a00015fc:	0a012303          	lw	t1,160(sp)
a0001600:	f3dff06f          	j	a000153c <_ZN5Dinic3DFSEii+0x7f4>
a0001604:	00040313          	mv	t1,s0
a0001608:	0c012783          	lw	a5,192(sp)
a000160c:	0c412403          	lw	s0,196(sp)
a0001610:	09812703          	lw	a4,152(sp)
a0001614:	c0e050e3          	blez	a4,a0001214 <_ZN5Dinic3DFSEii+0x4cc>
a0001618:	00c7a683          	lw	a3,12(a5)
a000161c:	09812603          	lw	a2,152(sp)
a0001620:	08c12583          	lw	a1,140(sp)
a0001624:	00144713          	xori	a4,s0,1
a0001628:	00c686b3          	add	a3,a3,a2
a000162c:	00471713          	slli	a4,a4,0x4
a0001630:	00d7a623          	sw	a3,12(a5)
a0001634:	00e307b3          	add	a5,t1,a4
a0001638:	00060693          	mv	a3,a2
a000163c:	00c7a703          	lw	a4,12(a5)
a0001640:	40c58633          	sub	a2,a1,a2
a0001644:	09412583          	lw	a1,148(sp)
a0001648:	40d70733          	sub	a4,a4,a3
a000164c:	08c12623          	sw	a2,140(sp)
a0001650:	00d585b3          	add	a1,a1,a3
a0001654:	08b12a23          	sw	a1,148(sp)
a0001658:	00e7a623          	sw	a4,12(a5)
a000165c:	ba061ce3          	bnez	a2,a0001214 <_ZN5Dinic3DFSEii+0x4cc>
a0001660:	0bc12303          	lw	t1,188(sp)
a0001664:	01c0006f          	j	a0001680 <_ZN5Dinic3DFSEii+0x938>
a0001668:	06812783          	lw	a5,104(sp)
a000166c:	08f12023          	sw	a5,128(sp)
a0001670:	e69ff06f          	j	a00014d8 <_ZN5Dinic3DFSEii+0x790>
a0001674:	0bc12303          	lw	t1,188(sp)
a0001678:	09412783          	lw	a5,148(sp)
a000167c:	aef05ce3          	blez	a5,a0001174 <_ZN5Dinic3DFSEii+0x42c>
a0001680:	07c12603          	lw	a2,124(sp)
a0001684:	09412683          	lw	a3,148(sp)
a0001688:	00134793          	xori	a5,t1,1
a000168c:	00c62703          	lw	a4,12(a2)
a0001690:	00479793          	slli	a5,a5,0x4
a0001694:	09012583          	lw	a1,144(sp)
a0001698:	00d70733          	add	a4,a4,a3
a000169c:	00e62623          	sw	a4,12(a2)
a00016a0:	02012703          	lw	a4,32(sp)
a00016a4:	08412603          	lw	a2,132(sp)
a00016a8:	00d585b3          	add	a1,a1,a3
a00016ac:	00f707b3          	add	a5,a4,a5
a00016b0:	00c7a703          	lw	a4,12(a5)
a00016b4:	40d60633          	sub	a2,a2,a3
a00016b8:	08c12223          	sw	a2,132(sp)
a00016bc:	40d70733          	sub	a4,a4,a3
a00016c0:	08b12823          	sw	a1,144(sp)
a00016c4:	00e7a623          	sw	a4,12(a5)
a00016c8:	aa0616e3          	bnez	a2,a0001174 <_ZN5Dinic3DFSEii+0x42c>
a00016cc:	0a412303          	lw	t1,164(sp)
a00016d0:	ee1ff06f          	j	a00015b0 <_ZN5Dinic3DFSEii+0x868>
a00016d4:	07812783          	lw	a5,120(sp)
a00016d8:	08f12423          	sw	a5,136(sp)
a00016dc:	e59ff06f          	j	a0001534 <_ZN5Dinic3DFSEii+0x7ec>
a00016e0:	00030613          	mv	a2,t1
a00016e4:	c15ff06f          	j	a00012f8 <_ZN5Dinic3DFSEii+0x5b0>
a00016e8:	08412783          	lw	a5,132(sp)
a00016ec:	08f12823          	sw	a5,144(sp)
a00016f0:	eb9ff06f          	j	a00015a8 <_ZN5Dinic3DFSEii+0x860>
a00016f4:	08c12783          	lw	a5,140(sp)
a00016f8:	08f12a23          	sw	a5,148(sp)
a00016fc:	f7dff06f          	j	a0001678 <_ZN5Dinic3DFSEii+0x930>

a0001700 <bench_dinic_prepare>:
a0001700:	00007797          	auipc	a5,0x7
a0001704:	aa07a783          	lw	a5,-1376(a5) # a00081a0 <setting>
a0001708:	0007a783          	lw	a5,0(a5)
a000170c:	fe010113          	addi	sp,sp,-32
a0001710:	00112e23          	sw	ra,28(sp)
a0001714:	00812c23          	sw	s0,24(sp)
a0001718:	00912a23          	sw	s1,20(sp)
a000171c:	00007417          	auipc	s0,0x7
a0001720:	a1840413          	addi	s0,s0,-1512 # a0008134 <_ZL1N>
a0001724:	00100513          	li	a0,1
a0001728:	00f42023          	sw	a5,0(s0)
a000172c:	385030ef          	jal	ra,a00052b0 <bench_srand>
a0001730:	00042783          	lw	a5,0(s0)
a0001734:	02c00513          	li	a0,44
a0001738:	00179793          	slli	a5,a5,0x1
a000173c:	00f12623          	sw	a5,12(sp)
a0001740:	2c9030ef          	jal	ra,a0005208 <bench_alloc>
a0001744:	00042703          	lw	a4,0(s0)
a0001748:	00007697          	auipc	a3,0x7
a000174c:	9e868693          	addi	a3,a3,-1560 # a0008130 <_ZL1G>
a0001750:	00a6a023          	sw	a0,0(a3)
a0001754:	00170713          	addi	a4,a4,1
a0001758:	00171693          	slli	a3,a4,0x1
a000175c:	ffe68793          	addi	a5,a3,-2
a0001760:	4017d493          	srai	s1,a5,0x1
a0001764:	00050413          	mv	s0,a0
a0001768:	00048593          	mv	a1,s1
a000176c:	00048513          	mv	a0,s1
a0001770:	00d12223          	sw	a3,4(sp)
a0001774:	00e12423          	sw	a4,8(sp)
a0001778:	53c040ef          	jal	ra,a0005cb4 <__mulsi3>
a000177c:	00149793          	slli	a5,s1,0x1
a0001780:	00f507b3          	add	a5,a0,a5
a0001784:	00579513          	slli	a0,a5,0x5
a0001788:	00f12023          	sw	a5,0(sp)
a000178c:	27d030ef          	jal	ra,a0005208 <bench_alloc>
a0001790:	00812703          	lw	a4,8(sp)
a0001794:	00a42823          	sw	a0,16(s0)
a0001798:	00371493          	slli	s1,a4,0x3
a000179c:	00048513          	mv	a0,s1
a00017a0:	269030ef          	jal	ra,a0005208 <bench_alloc>
a00017a4:	00012783          	lw	a5,0(sp)
a00017a8:	00a42a23          	sw	a0,20(s0)
a00017ac:	00379513          	slli	a0,a5,0x3
a00017b0:	259030ef          	jal	ra,a0005208 <bench_alloc>
a00017b4:	00412683          	lw	a3,4(sp)
a00017b8:	00a42c23          	sw	a0,24(s0)
a00017bc:	00068513          	mv	a0,a3
a00017c0:	00d12023          	sw	a3,0(sp)
a00017c4:	245030ef          	jal	ra,a0005208 <bench_alloc>
a00017c8:	02a42423          	sw	a0,40(s0)
a00017cc:	00048513          	mv	a0,s1
a00017d0:	239030ef          	jal	ra,a0005208 <bench_alloc>
a00017d4:	00a42e23          	sw	a0,28(s0)
a00017d8:	00048513          	mv	a0,s1
a00017dc:	22d030ef          	jal	ra,a0005208 <bench_alloc>
a00017e0:	02a42023          	sw	a0,32(s0)
a00017e4:	00048513          	mv	a0,s1
a00017e8:	221030ef          	jal	ra,a0005208 <bench_alloc>
a00017ec:	00c12783          	lw	a5,12(sp)
a00017f0:	00012683          	lw	a3,0(sp)
a00017f4:	02a42223          	sw	a0,36(s0)
a00017f8:	00178793          	addi	a5,a5,1
a00017fc:	00d42023          	sw	a3,0(s0)
a0001800:	00f12823          	sw	a5,16(sp)
a0001804:	00d05e63          	blez	a3,a0001820 <bench_dinic_prepare+0x120>
a0001808:	01442783          	lw	a5,20(s0)
a000180c:	fff00693          	li	a3,-1
a0001810:	00978733          	add	a4,a5,s1
a0001814:	00d7a023          	sw	a3,0(a5)
a0001818:	00478793          	addi	a5,a5,4
a000181c:	fee79ce3          	bne	a5,a4,a0001814 <bench_dinic_prepare+0x114>
a0001820:	00007797          	auipc	a5,0x7
a0001824:	91478793          	addi	a5,a5,-1772 # a0008134 <_ZL1N>
a0001828:	0007a483          	lw	s1,0(a5)
a000182c:	00042223          	sw	zero,4(s0)
a0001830:	00012223          	sw	zero,4(sp)
a0001834:	2a905a63          	blez	s1,a0001ae8 <bench_dinic_prepare+0x3e8>
a0001838:	00412783          	lw	a5,4(sp)
a000183c:	00000693          	li	a3,0
a0001840:	00279793          	slli	a5,a5,0x2
a0001844:	00f12423          	sw	a5,8(sp)
a0001848:	00007797          	auipc	a5,0x7
a000184c:	8e878793          	addi	a5,a5,-1816 # a0008130 <_ZL1G>
a0001850:	0007a403          	lw	s0,0(a5)
a0001854:	00d12023          	sw	a3,0(sp)
a0001858:	26d030ef          	jal	ra,a00052c4 <bench_rand>
a000185c:	00a00593          	li	a1,10
a0001860:	3f0040ef          	jal	ra,a0005c50 <__umodsi3>
a0001864:	00012683          	lw	a3,0(sp)
a0001868:	00007797          	auipc	a5,0x7
a000186c:	8cc78793          	addi	a5,a5,-1844 # a0008134 <_ZL1N>
a0001870:	00d485b3          	add	a1,s1,a3
a0001874:	00259293          	slli	t0,a1,0x2
a0001878:	00512023          	sw	t0,0(sp)
a000187c:	0007a483          	lw	s1,0(a5)
a0001880:	00168693          	addi	a3,a3,1
a0001884:	08050e63          	beqz	a0,a0001920 <bench_dinic_prepare+0x220>
a0001888:	00442703          	lw	a4,4(s0)
a000188c:	01042783          	lw	a5,16(s0)
a0001890:	00412303          	lw	t1,4(sp)
a0001894:	00471393          	slli	t2,a4,0x4
a0001898:	007783b3          	add	t2,a5,t2
a000189c:	01442603          	lw	a2,20(s0)
a00018a0:	0063a023          	sw	t1,0(t2)
a00018a4:	00a3a423          	sw	a0,8(t2)
a00018a8:	00b3a223          	sw	a1,4(t2)
a00018ac:	0003a623          	sw	zero,12(t2)
a00018b0:	00812383          	lw	t2,8(sp)
a00018b4:	01842503          	lw	a0,24(s0)
a00018b8:	00271713          	slli	a4,a4,0x2
a00018bc:	007603b3          	add	t2,a2,t2
a00018c0:	0003a283          	lw	t0,0(t2)
a00018c4:	00e50733          	add	a4,a0,a4
a00018c8:	00572023          	sw	t0,0(a4)
a00018cc:	00442703          	lw	a4,4(s0)
a00018d0:	00259293          	slli	t0,a1,0x2
a00018d4:	00560633          	add	a2,a2,t0
a00018d8:	00170293          	addi	t0,a4,1
a00018dc:	00542223          	sw	t0,4(s0)
a00018e0:	00e3a023          	sw	a4,0(t2)
a00018e4:	00442703          	lw	a4,4(s0)
a00018e8:	00471293          	slli	t0,a4,0x4
a00018ec:	005787b3          	add	a5,a5,t0
a00018f0:	00b7a023          	sw	a1,0(a5)
a00018f4:	0067a223          	sw	t1,4(a5)
a00018f8:	0007a423          	sw	zero,8(a5)
a00018fc:	0007a623          	sw	zero,12(a5)
a0001900:	00062783          	lw	a5,0(a2)
a0001904:	00271713          	slli	a4,a4,0x2
a0001908:	00e50533          	add	a0,a0,a4
a000190c:	00f52023          	sw	a5,0(a0)
a0001910:	00442783          	lw	a5,4(s0)
a0001914:	00178713          	addi	a4,a5,1
a0001918:	00e42223          	sw	a4,4(s0)
a000191c:	00f62023          	sw	a5,0(a2)
a0001920:	f296c4e3          	blt	a3,s1,a0001848 <bench_dinic_prepare+0x148>
a0001924:	00412783          	lw	a5,4(sp)
a0001928:	00178793          	addi	a5,a5,1
a000192c:	00f12223          	sw	a5,4(sp)
a0001930:	f097c4e3          	blt	a5,s1,a0001838 <bench_dinic_prepare+0x138>
a0001934:	1a905a63          	blez	s1,a0001ae8 <bench_dinic_prepare+0x3e8>
a0001938:	00c12783          	lw	a5,12(sp)
a000193c:	00000493          	li	s1,0
a0001940:	00279793          	slli	a5,a5,0x2
a0001944:	00f12423          	sw	a5,8(sp)
a0001948:	01012783          	lw	a5,16(sp)
a000194c:	00279793          	slli	a5,a5,0x2
a0001950:	00f12223          	sw	a5,4(sp)
a0001954:	00006417          	auipc	s0,0x6
a0001958:	7dc40413          	addi	s0,s0,2012 # a0008130 <_ZL1G>
a000195c:	00042683          	lw	a3,0(s0)
a0001960:	00d12023          	sw	a3,0(sp)
a0001964:	161030ef          	jal	ra,a00052c4 <bench_rand>
a0001968:	3e800593          	li	a1,1000
a000196c:	2e4040ef          	jal	ra,a0005c50 <__umodsi3>
a0001970:	00006797          	auipc	a5,0x6
a0001974:	7c478793          	addi	a5,a5,1988 # a0008134 <_ZL1N>
a0001978:	00042403          	lw	s0,0(s0)
a000197c:	0007a703          	lw	a4,0(a5)
a0001980:	00249313          	slli	t1,s1,0x2
a0001984:	08050e63          	beqz	a0,a0001a20 <bench_dinic_prepare+0x320>
a0001988:	00012683          	lw	a3,0(sp)
a000198c:	00c12783          	lw	a5,12(sp)
a0001990:	0046a583          	lw	a1,4(a3)
a0001994:	0106a603          	lw	a2,16(a3)
a0001998:	0146a383          	lw	t2,20(a3)
a000199c:	00459293          	slli	t0,a1,0x4
a00019a0:	005602b3          	add	t0,a2,t0
a00019a4:	00f2a023          	sw	a5,0(t0)
a00019a8:	00a2a423          	sw	a0,8(t0)
a00019ac:	0092a223          	sw	s1,4(t0)
a00019b0:	0002a623          	sw	zero,12(t0)
a00019b4:	00812283          	lw	t0,8(sp)
a00019b8:	0186a503          	lw	a0,24(a3)
a00019bc:	00259593          	slli	a1,a1,0x2
a00019c0:	005382b3          	add	t0,t2,t0
a00019c4:	0002a083          	lw	ra,0(t0)
a00019c8:	00b505b3          	add	a1,a0,a1
a00019cc:	00638333          	add	t1,t2,t1
a00019d0:	0015a023          	sw	ra,0(a1)
a00019d4:	0046a583          	lw	a1,4(a3)
a00019d8:	00158393          	addi	t2,a1,1
a00019dc:	0076a223          	sw	t2,4(a3)
a00019e0:	00b2a023          	sw	a1,0(t0)
a00019e4:	0046a583          	lw	a1,4(a3)
a00019e8:	00459293          	slli	t0,a1,0x4
a00019ec:	00560633          	add	a2,a2,t0
a00019f0:	00962023          	sw	s1,0(a2)
a00019f4:	00f62223          	sw	a5,4(a2)
a00019f8:	00062423          	sw	zero,8(a2)
a00019fc:	00062623          	sw	zero,12(a2)
a0001a00:	00032603          	lw	a2,0(t1)
a0001a04:	00259593          	slli	a1,a1,0x2
a0001a08:	00b50533          	add	a0,a0,a1
a0001a0c:	00c52023          	sw	a2,0(a0)
a0001a10:	0046a603          	lw	a2,4(a3)
a0001a14:	00160593          	addi	a1,a2,1
a0001a18:	00b6a223          	sw	a1,4(a3)
a0001a1c:	00c32023          	sw	a2,0(t1)
a0001a20:	00e12023          	sw	a4,0(sp)
a0001a24:	0a1030ef          	jal	ra,a00052c4 <bench_rand>
a0001a28:	3e800593          	li	a1,1000
a0001a2c:	224040ef          	jal	ra,a0005c50 <__umodsi3>
a0001a30:	00012703          	lw	a4,0(sp)
a0001a34:	00006797          	auipc	a5,0x6
a0001a38:	70078793          	addi	a5,a5,1792 # a0008134 <_ZL1N>
a0001a3c:	0007a383          	lw	t2,0(a5)
a0001a40:	00970733          	add	a4,a4,s1
a0001a44:	00271293          	slli	t0,a4,0x2
a0001a48:	00148493          	addi	s1,s1,1
a0001a4c:	08050c63          	beqz	a0,a0001ae4 <bench_dinic_prepare+0x3e4>
a0001a50:	00442603          	lw	a2,4(s0)
a0001a54:	01042683          	lw	a3,16(s0)
a0001a58:	01442303          	lw	t1,20(s0)
a0001a5c:	01012783          	lw	a5,16(sp)
a0001a60:	00461593          	slli	a1,a2,0x4
a0001a64:	00b685b3          	add	a1,a3,a1
a0001a68:	00e5a023          	sw	a4,0(a1)
a0001a6c:	00f5a223          	sw	a5,4(a1)
a0001a70:	00a5a423          	sw	a0,8(a1)
a0001a74:	0005a623          	sw	zero,12(a1)
a0001a78:	005302b3          	add	t0,t1,t0
a0001a7c:	01842583          	lw	a1,24(s0)
a0001a80:	0002a503          	lw	a0,0(t0)
a0001a84:	00261613          	slli	a2,a2,0x2
a0001a88:	00c58633          	add	a2,a1,a2
a0001a8c:	00a62023          	sw	a0,0(a2)
a0001a90:	00442603          	lw	a2,4(s0)
a0001a94:	00412503          	lw	a0,4(sp)
a0001a98:	00a30333          	add	t1,t1,a0
a0001a9c:	00160513          	addi	a0,a2,1
a0001aa0:	00a42223          	sw	a0,4(s0)
a0001aa4:	00c2a023          	sw	a2,0(t0)
a0001aa8:	00442603          	lw	a2,4(s0)
a0001aac:	00461513          	slli	a0,a2,0x4
a0001ab0:	00a686b3          	add	a3,a3,a0
a0001ab4:	00f6a023          	sw	a5,0(a3)
a0001ab8:	00e6a223          	sw	a4,4(a3)
a0001abc:	0006a423          	sw	zero,8(a3)
a0001ac0:	0006a623          	sw	zero,12(a3)
a0001ac4:	00032703          	lw	a4,0(t1)
a0001ac8:	00261613          	slli	a2,a2,0x2
a0001acc:	00c585b3          	add	a1,a1,a2
a0001ad0:	00e5a023          	sw	a4,0(a1)
a0001ad4:	00442703          	lw	a4,4(s0)
a0001ad8:	00170693          	addi	a3,a4,1
a0001adc:	00d42223          	sw	a3,4(s0)
a0001ae0:	00e32023          	sw	a4,0(t1)
a0001ae4:	e674c8e3          	blt	s1,t2,a0001954 <bench_dinic_prepare+0x254>
a0001ae8:	01c12083          	lw	ra,28(sp)
a0001aec:	01812403          	lw	s0,24(sp)
a0001af0:	01412483          	lw	s1,20(sp)
a0001af4:	02010113          	addi	sp,sp,32
a0001af8:	00008067          	ret

a0001afc <bench_dinic_run>:
a0001afc:	00006397          	auipc	t2,0x6
a0001b00:	6343a383          	lw	t2,1588(t2) # a0008130 <_ZL1G>
a0001b04:	0283a783          	lw	a5,40(t2)
a0001b08:	f8410113          	addi	sp,sp,-124
a0001b0c:	00006717          	auipc	a4,0x6
a0001b10:	62872703          	lw	a4,1576(a4) # a0008134 <_ZL1N>
a0001b14:	00f12623          	sw	a5,12(sp)
a0001b18:	0243a783          	lw	a5,36(t2)
a0001b1c:	00171613          	slli	a2,a4,0x1
a0001b20:	06112c23          	sw	ra,120(sp)
a0001b24:	00f12e23          	sw	a5,28(sp)
a0001b28:	01c3a783          	lw	a5,28(t2)
a0001b2c:	06812a23          	sw	s0,116(sp)
a0001b30:	06912823          	sw	s1,112(sp)
a0001b34:	00f12023          	sw	a5,0(sp)
a0001b38:	0143a783          	lw	a5,20(t2)
a0001b3c:	00160693          	addi	a3,a2,1
a0001b40:	00371713          	slli	a4,a4,0x3
a0001b44:	00f12823          	sw	a5,16(sp)
a0001b48:	0003a783          	lw	a5,0(t2)
a0001b4c:	04c12023          	sw	a2,64(sp)
a0001b50:	00c3a423          	sw	a2,8(t2)
a0001b54:	00d3a623          	sw	a3,12(t2)
a0001b58:	04e12c23          	sw	a4,88(sp)
a0001b5c:	02012c23          	sw	zero,56(sp)
a0001b60:	00c12683          	lw	a3,12(sp)
a0001b64:	00068713          	mv	a4,a3
a0001b68:	00f686b3          	add	a3,a3,a5
a0001b6c:	00f05863          	blez	a5,a0001b7c <bench_dinic_run+0x80>
a0001b70:	00070023          	sb	zero,0(a4)
a0001b74:	00170713          	addi	a4,a4,1
a0001b78:	fee69ce3          	bne	a3,a4,a0001b70 <bench_dinic_run+0x74>
a0001b7c:	01c12503          	lw	a0,28(sp)
a0001b80:	00012703          	lw	a4,0(sp)
a0001b84:	00100293          	li	t0,1
a0001b88:	00c52023          	sw	a2,0(a0)
a0001b8c:	0083a783          	lw	a5,8(t2)
a0001b90:	00000593          	li	a1,0
a0001b94:	fff00493          	li	s1,-1
a0001b98:	00279793          	slli	a5,a5,0x2
a0001b9c:	00f707b3          	add	a5,a4,a5
a0001ba0:	0007a023          	sw	zero,0(a5)
a0001ba4:	0083a783          	lw	a5,8(t2)
a0001ba8:	00c12703          	lw	a4,12(sp)
a0001bac:	00038413          	mv	s0,t2
a0001bb0:	00028313          	mv	t1,t0
a0001bb4:	00f707b3          	add	a5,a4,a5
a0001bb8:	00100713          	li	a4,1
a0001bbc:	00e78023          	sb	a4,0(a5)
a0001bc0:	00052703          	lw	a4,0(a0)
a0001bc4:	01012783          	lw	a5,16(sp)
a0001bc8:	00158593          	addi	a1,a1,1
a0001bcc:	00271713          	slli	a4,a4,0x2
a0001bd0:	00e787b3          	add	a5,a5,a4
a0001bd4:	0007a783          	lw	a5,0(a5)
a0001bd8:	0a978263          	beq	a5,s1,a0001c7c <bench_dinic_run+0x180>
a0001bdc:	01842683          	lw	a3,24(s0)
a0001be0:	01042283          	lw	t0,16(s0)
a0001be4:	00b12423          	sw	a1,8(sp)
a0001be8:	00d12223          	sw	a3,4(sp)
a0001bec:	00012683          	lw	a3,0(sp)
a0001bf0:	00e68733          	add	a4,a3,a4
a0001bf4:	00e12a23          	sw	a4,20(sp)
a0001bf8:	00412683          	lw	a3,4(sp)
a0001bfc:	00479713          	slli	a4,a5,0x4
a0001c00:	00e28733          	add	a4,t0,a4
a0001c04:	00279793          	slli	a5,a5,0x2
a0001c08:	00472603          	lw	a2,4(a4)
a0001c0c:	00f687b3          	add	a5,a3,a5
a0001c10:	00c12683          	lw	a3,12(sp)
a0001c14:	00c686b3          	add	a3,a3,a2
a0001c18:	0006c383          	lbu	t2,0(a3)
a0001c1c:	04039a63          	bnez	t2,a0001c70 <bench_dinic_run+0x174>
a0001c20:	00012383          	lw	t2,0(sp)
a0001c24:	00261613          	slli	a2,a2,0x2
a0001c28:	00872583          	lw	a1,8(a4)
a0001c2c:	00c38633          	add	a2,t2,a2
a0001c30:	01c12383          	lw	t2,28(sp)
a0001c34:	00c12c23          	sw	a2,24(sp)
a0001c38:	00231613          	slli	a2,t1,0x2
a0001c3c:	00c38633          	add	a2,t2,a2
a0001c40:	00c72383          	lw	t2,12(a4)
a0001c44:	02b3d663          	bge	t2,a1,a0001c70 <bench_dinic_run+0x174>
a0001c48:	01412383          	lw	t2,20(sp)
a0001c4c:	00130313          	addi	t1,t1,1
a0001c50:	0003a583          	lw	a1,0(t2)
a0001c54:	00100393          	li	t2,1
a0001c58:	00768023          	sb	t2,0(a3)
a0001c5c:	01812683          	lw	a3,24(sp)
a0001c60:	00158393          	addi	t2,a1,1
a0001c64:	0076a023          	sw	t2,0(a3)
a0001c68:	00472703          	lw	a4,4(a4)
a0001c6c:	00e62023          	sw	a4,0(a2)
a0001c70:	0007a783          	lw	a5,0(a5)
a0001c74:	f89792e3          	bne	a5,s1,a0001bf8 <bench_dinic_run+0xfc>
a0001c78:	00812583          	lw	a1,8(sp)
a0001c7c:	00450513          	addi	a0,a0,4
a0001c80:	f46590e3          	bne	a1,t1,a0001bc0 <bench_dinic_run+0xc4>
a0001c84:	00c42783          	lw	a5,12(s0)
a0001c88:	00c12703          	lw	a4,12(sp)
a0001c8c:	00040393          	mv	t2,s0
a0001c90:	00f12c23          	sw	a5,24(sp)
a0001c94:	00f707b3          	add	a5,a4,a5
a0001c98:	0007c783          	lbu	a5,0(a5)
a0001c9c:	50078263          	beqz	a5,a00021a0 <bench_dinic_run+0x6a4>
a0001ca0:	00042783          	lw	a5,0(s0)
a0001ca4:	02f05a63          	blez	a5,a0001cd8 <bench_dinic_run+0x1dc>
a0001ca8:	0203a603          	lw	a2,32(t2)
a0001cac:	01012683          	lw	a3,16(sp)
a0001cb0:	00000713          	li	a4,0
a0001cb4:	0006a783          	lw	a5,0(a3)
a0001cb8:	00170713          	addi	a4,a4,1
a0001cbc:	00468693          	addi	a3,a3,4
a0001cc0:	00f62023          	sw	a5,0(a2)
a0001cc4:	0003a783          	lw	a5,0(t2)
a0001cc8:	00460613          	addi	a2,a2,4
a0001ccc:	fef744e3          	blt	a4,a5,a0001cb4 <bench_dinic_run+0x1b8>
a0001cd0:	00c3a703          	lw	a4,12(t2)
a0001cd4:	00e12c23          	sw	a4,24(sp)
a0001cd8:	04012703          	lw	a4,64(sp)
a0001cdc:	01812683          	lw	a3,24(sp)
a0001ce0:	48d70c63          	beq	a4,a3,a0002178 <bench_dinic_run+0x67c>
a0001ce4:	0203a703          	lw	a4,32(t2)
a0001ce8:	05812603          	lw	a2,88(sp)
a0001cec:	00070693          	mv	a3,a4
a0001cf0:	00c686b3          	add	a3,a3,a2
a0001cf4:	0006a283          	lw	t0,0(a3)
a0001cf8:	02e12a23          	sw	a4,52(sp)
a0001cfc:	fff00713          	li	a4,-1
a0001d00:	30e28463          	beq	t0,a4,a0002008 <bench_dinic_run+0x50c>
a0001d04:	00012783          	lw	a5,0(sp)
a0001d08:	02012623          	sw	zero,44(sp)
a0001d0c:	00c787b3          	add	a5,a5,a2
a0001d10:	00f12823          	sw	a5,16(sp)
a0001d14:	003f47b7          	lui	a5,0x3f4
a0001d18:	f3f78793          	addi	a5,a5,-193 # 3f3f3f <_text_size+0x3ed137>
a0001d1c:	02f12223          	sw	a5,36(sp)
a0001d20:	01c0006f          	j	a0001d3c <bench_dinic_run+0x240>
a0001d24:	0183a783          	lw	a5,24(t2)
a0001d28:	00229713          	slli	a4,t0,0x2
a0001d2c:	00e787b3          	add	a5,a5,a4
a0001d30:	0007a283          	lw	t0,0(a5)
a0001d34:	fff00793          	li	a5,-1
a0001d38:	28f28e63          	beq	t0,a5,a0001fd4 <bench_dinic_run+0x4d8>
a0001d3c:	0103a303          	lw	t1,16(t2)
a0001d40:	01012703          	lw	a4,16(sp)
a0001d44:	00429793          	slli	a5,t0,0x4
a0001d48:	00f307b3          	add	a5,t1,a5
a0001d4c:	00072603          	lw	a2,0(a4)
a0001d50:	0047a703          	lw	a4,4(a5)
a0001d54:	00012683          	lw	a3,0(sp)
a0001d58:	00f12423          	sw	a5,8(sp)
a0001d5c:	00271793          	slli	a5,a4,0x2
a0001d60:	00f686b3          	add	a3,a3,a5
a0001d64:	00d12223          	sw	a3,4(sp)
a0001d68:	0006a683          	lw	a3,0(a3)
a0001d6c:	00160613          	addi	a2,a2,1
a0001d70:	fad61ae3          	bne	a2,a3,a0001d24 <bench_dinic_run+0x228>
a0001d74:	00812603          	lw	a2,8(sp)
a0001d78:	00862583          	lw	a1,8(a2)
a0001d7c:	00c62603          	lw	a2,12(a2)
a0001d80:	40c58633          	sub	a2,a1,a2
a0001d84:	02412583          	lw	a1,36(sp)
a0001d88:	00c12e23          	sw	a2,28(sp)
a0001d8c:	00c5d463          	bge	a1,a2,a0001d94 <bench_dinic_run+0x298>
a0001d90:	00b12e23          	sw	a1,28(sp)
a0001d94:	01812603          	lw	a2,24(sp)
a0001d98:	3cc70a63          	beq	a4,a2,a000216c <bench_dinic_run+0x670>
a0001d9c:	01c12703          	lw	a4,28(sp)
a0001da0:	f80702e3          	beqz	a4,a0001d24 <bench_dinic_run+0x228>
a0001da4:	03412703          	lw	a4,52(sp)
a0001da8:	00f707b3          	add	a5,a4,a5
a0001dac:	0007a783          	lw	a5,0(a5)
a0001db0:	fff00713          	li	a4,-1
a0001db4:	f6e788e3          	beq	a5,a4,a0001d24 <bench_dinic_run+0x228>
a0001db8:	00612a23          	sw	t1,20(sp)
a0001dbc:	02012423          	sw	zero,40(sp)
a0001dc0:	04512223          	sw	t0,68(sp)
a0001dc4:	00078313          	mv	t1,a5
a0001dc8:	0240006f          	j	a0001dec <bench_dinic_run+0x2f0>
a0001dcc:	0183a783          	lw	a5,24(t2)
a0001dd0:	00231713          	slli	a4,t1,0x2
a0001dd4:	00e787b3          	add	a5,a5,a4
a0001dd8:	0007a303          	lw	t1,0(a5)
a0001ddc:	fff00793          	li	a5,-1
a0001de0:	22f30863          	beq	t1,a5,a0002010 <bench_dinic_run+0x514>
a0001de4:	00412783          	lw	a5,4(sp)
a0001de8:	0007a683          	lw	a3,0(a5)
a0001dec:	01412703          	lw	a4,20(sp)
a0001df0:	00431793          	slli	a5,t1,0x4
a0001df4:	00012603          	lw	a2,0(sp)
a0001df8:	00f702b3          	add	t0,a4,a5
a0001dfc:	0042a703          	lw	a4,4(t0)
a0001e00:	00168693          	addi	a3,a3,1
a0001e04:	00271793          	slli	a5,a4,0x2
a0001e08:	00f60633          	add	a2,a2,a5
a0001e0c:	00062503          	lw	a0,0(a2)
a0001e10:	00c12623          	sw	a2,12(sp)
a0001e14:	faa69ce3          	bne	a3,a0,a0001dcc <bench_dinic_run+0x2d0>
a0001e18:	0082a603          	lw	a2,8(t0)
a0001e1c:	00c2a683          	lw	a3,12(t0)
a0001e20:	40d606b3          	sub	a3,a2,a3
a0001e24:	01c12603          	lw	a2,28(sp)
a0001e28:	02d12023          	sw	a3,32(sp)
a0001e2c:	00d65463          	bge	a2,a3,a0001e34 <bench_dinic_run+0x338>
a0001e30:	02c12023          	sw	a2,32(sp)
a0001e34:	01812683          	lw	a3,24(sp)
a0001e38:	34d70e63          	beq	a4,a3,a0002194 <bench_dinic_run+0x698>
a0001e3c:	02012703          	lw	a4,32(sp)
a0001e40:	f80706e3          	beqz	a4,a0001dcc <bench_dinic_run+0x2d0>
a0001e44:	03412703          	lw	a4,52(sp)
a0001e48:	00f707b3          	add	a5,a4,a5
a0001e4c:	0007a403          	lw	s0,0(a5)
a0001e50:	fff00793          	li	a5,-1
a0001e54:	f6f40ce3          	beq	s0,a5,a0001dcc <bench_dinic_run+0x2d0>
a0001e58:	04512e23          	sw	t0,92(sp)
a0001e5c:	06612023          	sw	t1,96(sp)
a0001e60:	00012283          	lw	t0,0(sp)
a0001e64:	01412303          	lw	t1,20(sp)
a0001e68:	02012823          	sw	zero,48(sp)
a0001e6c:	0240006f          	j	a0001e90 <bench_dinic_run+0x394>
a0001e70:	0183a783          	lw	a5,24(t2)
a0001e74:	00241413          	slli	s0,s0,0x2
a0001e78:	008787b3          	add	a5,a5,s0
a0001e7c:	0007a403          	lw	s0,0(a5)
a0001e80:	fff00793          	li	a5,-1
a0001e84:	28f40263          	beq	s0,a5,a0002108 <bench_dinic_run+0x60c>
a0001e88:	00c12783          	lw	a5,12(sp)
a0001e8c:	0007a503          	lw	a0,0(a5)
a0001e90:	00441793          	slli	a5,s0,0x4
a0001e94:	00f307b3          	add	a5,t1,a5
a0001e98:	0047a583          	lw	a1,4(a5)
a0001e9c:	00150513          	addi	a0,a0,1
a0001ea0:	00259713          	slli	a4,a1,0x2
a0001ea4:	00e286b3          	add	a3,t0,a4
a0001ea8:	0006a603          	lw	a2,0(a3)
a0001eac:	fcc512e3          	bne	a0,a2,a0001e70 <bench_dinic_run+0x374>
a0001eb0:	0087a483          	lw	s1,8(a5)
a0001eb4:	00c7a503          	lw	a0,12(a5)
a0001eb8:	40a48533          	sub	a0,s1,a0
a0001ebc:	02012483          	lw	s1,32(sp)
a0001ec0:	02a12e23          	sw	a0,60(sp)
a0001ec4:	00a4d463          	bge	s1,a0,a0001ecc <bench_dinic_run+0x3d0>
a0001ec8:	02912e23          	sw	s1,60(sp)
a0001ecc:	01812503          	lw	a0,24(sp)
a0001ed0:	1ca58e63          	beq	a1,a0,a00020ac <bench_dinic_run+0x5b0>
a0001ed4:	03c12583          	lw	a1,60(sp)
a0001ed8:	f8058ce3          	beqz	a1,a0001e70 <bench_dinic_run+0x374>
a0001edc:	03412503          	lw	a0,52(sp)
a0001ee0:	00e50733          	add	a4,a0,a4
a0001ee4:	00072483          	lw	s1,0(a4)
a0001ee8:	fff00713          	li	a4,-1
a0001eec:	f8e482e3          	beq	s1,a4,a0001e70 <bench_dinic_run+0x374>
a0001ef0:	06812623          	sw	s0,108(sp)
a0001ef4:	02012e23          	sw	zero,60(sp)
a0001ef8:	00058713          	mv	a4,a1
a0001efc:	06f12423          	sw	a5,104(sp)
a0001f00:	00038413          	mv	s0,t2
a0001f04:	0200006f          	j	a0001f24 <bench_dinic_run+0x428>
a0001f08:	01842783          	lw	a5,24(s0)
a0001f0c:	00249493          	slli	s1,s1,0x2
a0001f10:	009787b3          	add	a5,a5,s1
a0001f14:	0007a483          	lw	s1,0(a5)
a0001f18:	fff00793          	li	a5,-1
a0001f1c:	18f48263          	beq	s1,a5,a00020a0 <bench_dinic_run+0x5a4>
a0001f20:	0006a603          	lw	a2,0(a3)
a0001f24:	00449793          	slli	a5,s1,0x4
a0001f28:	00f307b3          	add	a5,t1,a5
a0001f2c:	0047a583          	lw	a1,4(a5)
a0001f30:	00160513          	addi	a0,a2,1
a0001f34:	00259613          	slli	a2,a1,0x2
a0001f38:	00c28633          	add	a2,t0,a2
a0001f3c:	00062603          	lw	a2,0(a2)
a0001f40:	fcc514e3          	bne	a0,a2,a0001f08 <bench_dinic_run+0x40c>
a0001f44:	0087a603          	lw	a2,8(a5)
a0001f48:	00c7a383          	lw	t2,12(a5)
a0001f4c:	00040513          	mv	a0,s0
a0001f50:	40760633          	sub	a2,a2,t2
a0001f54:	00c75463          	bge	a4,a2,a0001f5c <bench_dinic_run+0x460>
a0001f58:	00070613          	mv	a2,a4
a0001f5c:	04512a23          	sw	t0,84(sp)
a0001f60:	04d12823          	sw	a3,80(sp)
a0001f64:	04612623          	sw	t1,76(sp)
a0001f68:	04e12423          	sw	a4,72(sp)
a0001f6c:	06f12223          	sw	a5,100(sp)
a0001f70:	dd9fe0ef          	jal	ra,a0000d48 <_ZN5Dinic3DFSEii>
a0001f74:	04c12303          	lw	t1,76(sp)
a0001f78:	0014c613          	xori	a2,s1,1
a0001f7c:	00461613          	slli	a2,a2,0x4
a0001f80:	04812703          	lw	a4,72(sp)
a0001f84:	05012683          	lw	a3,80(sp)
a0001f88:	05412283          	lw	t0,84(sp)
a0001f8c:	00c30633          	add	a2,t1,a2
a0001f90:	f6a05ce3          	blez	a0,a0001f08 <bench_dinic_run+0x40c>
a0001f94:	06412783          	lw	a5,100(sp)
a0001f98:	03c12383          	lw	t2,60(sp)
a0001f9c:	40a70733          	sub	a4,a4,a0
a0001fa0:	00c7a583          	lw	a1,12(a5)
a0001fa4:	00a383b3          	add	t2,t2,a0
a0001fa8:	02712e23          	sw	t2,60(sp)
a0001fac:	00a585b3          	add	a1,a1,a0
a0001fb0:	00b7a623          	sw	a1,12(a5)
a0001fb4:	00c62783          	lw	a5,12(a2)
a0001fb8:	40a787b3          	sub	a5,a5,a0
a0001fbc:	00f62623          	sw	a5,12(a2)
a0001fc0:	f40714e3          	bnez	a4,a0001f08 <bench_dinic_run+0x40c>
a0001fc4:	00040393          	mv	t2,s0
a0001fc8:	06812783          	lw	a5,104(sp)
a0001fcc:	06c12403          	lw	s0,108(sp)
a0001fd0:	0e40006f          	j	a00020b4 <bench_dinic_run+0x5b8>
a0001fd4:	0243a783          	lw	a5,36(t2)
a0001fd8:	03812703          	lw	a4,56(sp)
a0001fdc:	02c12683          	lw	a3,44(sp)
a0001fe0:	00f12e23          	sw	a5,28(sp)
a0001fe4:	01c3a783          	lw	a5,28(t2)
a0001fe8:	00d70733          	add	a4,a4,a3
a0001fec:	02e12c23          	sw	a4,56(sp)
a0001ff0:	00f12023          	sw	a5,0(sp)
a0001ff4:	0283a783          	lw	a5,40(t2)
a0001ff8:	00f12623          	sw	a5,12(sp)
a0001ffc:	0143a783          	lw	a5,20(t2)
a0002000:	00f12823          	sw	a5,16(sp)
a0002004:	0003a783          	lw	a5,0(t2)
a0002008:	0083a603          	lw	a2,8(t2)
a000200c:	b55ff06f          	j	a0001b60 <bench_dinic_run+0x64>
a0002010:	01412303          	lw	t1,20(sp)
a0002014:	04412283          	lw	t0,68(sp)
a0002018:	02812783          	lw	a5,40(sp)
a000201c:	d0f054e3          	blez	a5,a0001d24 <bench_dinic_run+0x228>
a0002020:	00812603          	lw	a2,8(sp)
a0002024:	02812683          	lw	a3,40(sp)
a0002028:	0012c793          	xori	a5,t0,1
a000202c:	00c62703          	lw	a4,12(a2)
a0002030:	00479793          	slli	a5,a5,0x4
a0002034:	00f307b3          	add	a5,t1,a5
a0002038:	00d70733          	add	a4,a4,a3
a000203c:	00e62623          	sw	a4,12(a2)
a0002040:	00c7a703          	lw	a4,12(a5)
a0002044:	02412603          	lw	a2,36(sp)
a0002048:	02c12583          	lw	a1,44(sp)
a000204c:	40d70733          	sub	a4,a4,a3
a0002050:	40d60633          	sub	a2,a2,a3
a0002054:	00d585b3          	add	a1,a1,a3
a0002058:	02c12223          	sw	a2,36(sp)
a000205c:	02b12623          	sw	a1,44(sp)
a0002060:	00e7a623          	sw	a4,12(a5)
a0002064:	cc0610e3          	bnez	a2,a0001d24 <bench_dinic_run+0x228>
a0002068:	0243a783          	lw	a5,36(t2)
a000206c:	03812703          	lw	a4,56(sp)
a0002070:	0083a603          	lw	a2,8(t2)
a0002074:	00f12e23          	sw	a5,28(sp)
a0002078:	01c3a783          	lw	a5,28(t2)
a000207c:	00b70733          	add	a4,a4,a1
a0002080:	02e12c23          	sw	a4,56(sp)
a0002084:	00f12023          	sw	a5,0(sp)
a0002088:	0283a783          	lw	a5,40(t2)
a000208c:	00f12623          	sw	a5,12(sp)
a0002090:	0143a783          	lw	a5,20(t2)
a0002094:	00f12823          	sw	a5,16(sp)
a0002098:	0003a783          	lw	a5,0(t2)
a000209c:	ac5ff06f          	j	a0001b60 <bench_dinic_run+0x64>
a00020a0:	00040393          	mv	t2,s0
a00020a4:	06812783          	lw	a5,104(sp)
a00020a8:	06c12403          	lw	s0,108(sp)
a00020ac:	03c12703          	lw	a4,60(sp)
a00020b0:	dce050e3          	blez	a4,a0001e70 <bench_dinic_run+0x374>
a00020b4:	00c7a683          	lw	a3,12(a5)
a00020b8:	03c12603          	lw	a2,60(sp)
a00020bc:	02012583          	lw	a1,32(sp)
a00020c0:	00144713          	xori	a4,s0,1
a00020c4:	00c686b3          	add	a3,a3,a2
a00020c8:	00471713          	slli	a4,a4,0x4
a00020cc:	00d7a623          	sw	a3,12(a5)
a00020d0:	00e307b3          	add	a5,t1,a4
a00020d4:	00060693          	mv	a3,a2
a00020d8:	00c7a703          	lw	a4,12(a5)
a00020dc:	40c58633          	sub	a2,a1,a2
a00020e0:	03012583          	lw	a1,48(sp)
a00020e4:	40d70733          	sub	a4,a4,a3
a00020e8:	02c12023          	sw	a2,32(sp)
a00020ec:	00d585b3          	add	a1,a1,a3
a00020f0:	02b12823          	sw	a1,48(sp)
a00020f4:	00e7a623          	sw	a4,12(a5)
a00020f8:	d6061ce3          	bnez	a2,a0001e70 <bench_dinic_run+0x374>
a00020fc:	05c12283          	lw	t0,92(sp)
a0002100:	06012303          	lw	t1,96(sp)
a0002104:	0140006f          	j	a0002118 <bench_dinic_run+0x61c>
a0002108:	05c12283          	lw	t0,92(sp)
a000210c:	06012303          	lw	t1,96(sp)
a0002110:	03012783          	lw	a5,48(sp)
a0002114:	caf05ce3          	blez	a5,a0001dcc <bench_dinic_run+0x2d0>
a0002118:	03012683          	lw	a3,48(sp)
a000211c:	00c2a703          	lw	a4,12(t0)
a0002120:	00134793          	xori	a5,t1,1
a0002124:	00479793          	slli	a5,a5,0x4
a0002128:	00d70733          	add	a4,a4,a3
a000212c:	00e2a623          	sw	a4,12(t0)
a0002130:	01412703          	lw	a4,20(sp)
a0002134:	01c12603          	lw	a2,28(sp)
a0002138:	02812583          	lw	a1,40(sp)
a000213c:	00f707b3          	add	a5,a4,a5
a0002140:	00c7a703          	lw	a4,12(a5)
a0002144:	40d60633          	sub	a2,a2,a3
a0002148:	00d585b3          	add	a1,a1,a3
a000214c:	40d70733          	sub	a4,a4,a3
a0002150:	00c12e23          	sw	a2,28(sp)
a0002154:	02b12423          	sw	a1,40(sp)
a0002158:	00e7a623          	sw	a4,12(a5)
a000215c:	c60618e3          	bnez	a2,a0001dcc <bench_dinic_run+0x2d0>
a0002160:	01412303          	lw	t1,20(sp)
a0002164:	04412283          	lw	t0,68(sp)
a0002168:	eb9ff06f          	j	a0002020 <bench_dinic_run+0x524>
a000216c:	01c12783          	lw	a5,28(sp)
a0002170:	02f12423          	sw	a5,40(sp)
a0002174:	ea5ff06f          	j	a0002018 <bench_dinic_run+0x51c>
a0002178:	03812683          	lw	a3,56(sp)
a000217c:	003f4737          	lui	a4,0x3f4
a0002180:	f3f70713          	addi	a4,a4,-193 # 3f3f3f <_text_size+0x3ed137>
a0002184:	00e68733          	add	a4,a3,a4
a0002188:	0083a603          	lw	a2,8(t2)
a000218c:	02e12c23          	sw	a4,56(sp)
a0002190:	9d1ff06f          	j	a0001b60 <bench_dinic_run+0x64>
a0002194:	02012783          	lw	a5,32(sp)
a0002198:	02f12823          	sw	a5,48(sp)
a000219c:	f75ff06f          	j	a0002110 <bench_dinic_run+0x614>
a00021a0:	03812703          	lw	a4,56(sp)
a00021a4:	07812083          	lw	ra,120(sp)
a00021a8:	07412403          	lw	s0,116(sp)
a00021ac:	00006797          	auipc	a5,0x6
a00021b0:	f8e7a623          	sw	a4,-116(a5) # a0008138 <_ZL3ans>
a00021b4:	07012483          	lw	s1,112(sp)
a00021b8:	07c10113          	addi	sp,sp,124
a00021bc:	00008067          	ret

a00021c0 <bench_dinic_validate>:
a00021c0:	00006797          	auipc	a5,0x6
a00021c4:	fe07a783          	lw	a5,-32(a5) # a00081a0 <setting>
a00021c8:	00c7a503          	lw	a0,12(a5)
a00021cc:	00006797          	auipc	a5,0x6
a00021d0:	f6c7a783          	lw	a5,-148(a5) # a0008138 <_ZL3ans>
a00021d4:	40f50533          	sub	a0,a0,a5
a00021d8:	00153513          	seqz	a0,a0
a00021dc:	00008067          	ret

a00021e0 <bench_fib_prepare>:
a00021e0:	00006797          	auipc	a5,0x6
a00021e4:	fc07a783          	lw	a5,-64(a5) # a00081a0 <setting>
a00021e8:	0007a783          	lw	a5,0(a5)
a00021ec:	ff410113          	addi	sp,sp,-12
a00021f0:	00112423          	sw	ra,8(sp)
a00021f4:	00078593          	mv	a1,a5
a00021f8:	00078513          	mv	a0,a5
a00021fc:	00812223          	sw	s0,4(sp)
a0002200:	00006717          	auipc	a4,0x6
a0002204:	f4f72023          	sw	a5,-192(a4) # a0008140 <M>
a0002208:	2ad030ef          	jal	ra,a0005cb4 <__mulsi3>
a000220c:	00251413          	slli	s0,a0,0x2
a0002210:	00040513          	mv	a0,s0
a0002214:	7f5020ef          	jal	ra,a0005208 <bench_alloc>
a0002218:	00050793          	mv	a5,a0
a000221c:	00040513          	mv	a0,s0
a0002220:	00006717          	auipc	a4,0x6
a0002224:	f0f72e23          	sw	a5,-228(a4) # a000813c <A>
a0002228:	7e1020ef          	jal	ra,a0005208 <bench_alloc>
a000222c:	00050793          	mv	a5,a0
a0002230:	00040513          	mv	a0,s0
a0002234:	00006717          	auipc	a4,0x6
a0002238:	f0f72823          	sw	a5,-240(a4) # a0008144 <T>
a000223c:	7cd020ef          	jal	ra,a0005208 <bench_alloc>
a0002240:	00050793          	mv	a5,a0
a0002244:	00040513          	mv	a0,s0
a0002248:	00006717          	auipc	a4,0x6
a000224c:	f0f72023          	sw	a5,-256(a4) # a0008148 <ans>
a0002250:	7b9020ef          	jal	ra,a0005208 <bench_alloc>
a0002254:	00812083          	lw	ra,8(sp)
a0002258:	00412403          	lw	s0,4(sp)
a000225c:	00006797          	auipc	a5,0x6
a0002260:	eea7a823          	sw	a0,-272(a5) # a000814c <tmp>
a0002264:	00c10113          	addi	sp,sp,12
a0002268:	00008067          	ret

a000226c <bench_fib_run>:
a000226c:	fa810113          	addi	sp,sp,-88
a0002270:	00006717          	auipc	a4,0x6
a0002274:	ed472703          	lw	a4,-300(a4) # a0008144 <T>
a0002278:	00006797          	auipc	a5,0x6
a000227c:	ec87a783          	lw	a5,-312(a5) # a0008140 <M>
a0002280:	02e12423          	sw	a4,40(sp)
a0002284:	00006717          	auipc	a4,0x6
a0002288:	ec472703          	lw	a4,-316(a4) # a0008148 <ans>
a000228c:	04112a23          	sw	ra,84(sp)
a0002290:	04812823          	sw	s0,80(sp)
a0002294:	04912623          	sw	s1,76(sp)
a0002298:	00f12823          	sw	a5,16(sp)
a000229c:	02e12623          	sw	a4,44(sp)
a00022a0:	08f05863          	blez	a5,a0002330 <bench_fib_run+0xc4>
a00022a4:	00006797          	auipc	a5,0x6
a00022a8:	e987a783          	lw	a5,-360(a5) # a000813c <A>
a00022ac:	00f12023          	sw	a5,0(sp)
a00022b0:	01012783          	lw	a5,16(sp)
a00022b4:	00000493          	li	s1,0
a00022b8:	00000313          	li	t1,0
a00022bc:	fff78413          	addi	s0,a5,-1
a00022c0:	00000293          	li	t0,0
a00022c4:	00012783          	lw	a5,0(sp)
a00022c8:	00249713          	slli	a4,s1,0x2
a00022cc:	00128293          	addi	t0,t0,1
a00022d0:	00e78533          	add	a0,a5,a4
a00022d4:	02812783          	lw	a5,40(sp)
a00022d8:	00e785b3          	add	a1,a5,a4
a00022dc:	02c12783          	lw	a5,44(sp)
a00022e0:	00e78733          	add	a4,a5,a4
a00022e4:	00000793          	li	a5,0
a00022e8:	406786b3          	sub	a3,a5,t1
a00022ec:	405783b3          	sub	t2,a5,t0
a00022f0:	0016b693          	seqz	a3,a3
a00022f4:	00178793          	addi	a5,a5,1
a00022f8:	00100613          	li	a2,1
a00022fc:	00640463          	beq	s0,t1,a0002304 <bench_fib_run+0x98>
a0002300:	0013b613          	seqz	a2,t2
a0002304:	00c52023          	sw	a2,0(a0)
a0002308:	00c5a023          	sw	a2,0(a1)
a000230c:	00d72023          	sw	a3,0(a4)
a0002310:	01012683          	lw	a3,16(sp)
a0002314:	00450513          	addi	a0,a0,4
a0002318:	00458593          	addi	a1,a1,4
a000231c:	00470713          	addi	a4,a4,4
a0002320:	fcd794e3          	bne	a5,a3,a00022e8 <bench_fib_run+0x7c>
a0002324:	00130313          	addi	t1,t1,1
a0002328:	00d484b3          	add	s1,s1,a3
a000232c:	f8569ce3          	bne	a3,t0,a00022c4 <bench_fib_run+0x58>
a0002330:	01012783          	lw	a5,16(sp)
a0002334:	02c12603          	lw	a2,44(sp)
a0002338:	00006697          	auipc	a3,0x6
a000233c:	e146a683          	lw	a3,-492(a3) # a000814c <tmp>
a0002340:	00279713          	slli	a4,a5,0x2
a0002344:	00e60633          	add	a2,a2,a4
a0002348:	00e12423          	sw	a4,8(sp)
a000234c:	00e68733          	add	a4,a3,a4
a0002350:	04e12023          	sw	a4,64(sp)
a0002354:	01f00713          	li	a4,31
a0002358:	40f007b3          	neg	a5,a5
a000235c:	02e12c23          	sw	a4,56(sp)
a0002360:	80000737          	lui	a4,0x80000
a0002364:	fd374713          	xori	a4,a4,-45
a0002368:	00379793          	slli	a5,a5,0x3
a000236c:	02d12823          	sw	a3,48(sp)
a0002370:	04c12223          	sw	a2,68(sp)
a0002374:	02e12a23          	sw	a4,52(sp)
a0002378:	04f12423          	sw	a5,72(sp)
a000237c:	03412783          	lw	a5,52(sp)
a0002380:	0017f793          	andi	a5,a5,1
a0002384:	14079e63          	bnez	a5,a00024e0 <bench_fib_run+0x274>
a0002388:	01012783          	lw	a5,16(sp)
a000238c:	12f05263          	blez	a5,a00024b0 <bench_fib_run+0x244>
a0002390:	02812783          	lw	a5,40(sp)
a0002394:	03012703          	lw	a4,48(sp)
a0002398:	02012223          	sw	zero,36(sp)
a000239c:	02f12e23          	sw	a5,60(sp)
a00023a0:	02e12023          	sw	a4,32(sp)
a00023a4:	00f12e23          	sw	a5,28(sp)
a00023a8:	02812783          	lw	a5,40(sp)
a00023ac:	00012c23          	sw	zero,24(sp)
a00023b0:	00f12a23          	sw	a5,20(sp)
a00023b4:	02012783          	lw	a5,32(sp)
a00023b8:	00f12623          	sw	a5,12(sp)
a00023bc:	00c12783          	lw	a5,12(sp)
a00023c0:	01412603          	lw	a2,20(sp)
a00023c4:	01c12683          	lw	a3,28(sp)
a00023c8:	0007a023          	sw	zero,0(a5)
a00023cc:	00000413          	li	s0,0
a00023d0:	00000493          	li	s1,0
a00023d4:	0006a503          	lw	a0,0(a3)
a00023d8:	00062583          	lw	a1,0(a2)
a00023dc:	00468693          	addi	a3,a3,4
a00023e0:	00c12223          	sw	a2,4(sp)
a00023e4:	00d12023          	sw	a3,0(sp)
a00023e8:	0cd030ef          	jal	ra,a0005cb4 <__mulsi3>
a00023ec:	00812703          	lw	a4,8(sp)
a00023f0:	00412603          	lw	a2,4(sp)
a00023f4:	00c12783          	lw	a5,12(sp)
a00023f8:	00a40433          	add	s0,s0,a0
a00023fc:	00e60633          	add	a2,a2,a4
a0002400:	01012703          	lw	a4,16(sp)
a0002404:	00148493          	addi	s1,s1,1
a0002408:	0087a023          	sw	s0,0(a5)
a000240c:	00012683          	lw	a3,0(sp)
a0002410:	fce4c2e3          	blt	s1,a4,a00023d4 <bench_fib_run+0x168>
a0002414:	00478793          	addi	a5,a5,4
a0002418:	01812683          	lw	a3,24(sp)
a000241c:	00f12623          	sw	a5,12(sp)
a0002420:	01412783          	lw	a5,20(sp)
a0002424:	00168693          	addi	a3,a3,1
a0002428:	00d12c23          	sw	a3,24(sp)
a000242c:	00478793          	addi	a5,a5,4
a0002430:	00f12a23          	sw	a5,20(sp)
a0002434:	f8e6c4e3          	blt	a3,a4,a00023bc <bench_fib_run+0x150>
a0002438:	01c12683          	lw	a3,28(sp)
a000243c:	00812703          	lw	a4,8(sp)
a0002440:	02412783          	lw	a5,36(sp)
a0002444:	00e686b3          	add	a3,a3,a4
a0002448:	00d12e23          	sw	a3,28(sp)
a000244c:	02012683          	lw	a3,32(sp)
a0002450:	00178793          	addi	a5,a5,1
a0002454:	02f12223          	sw	a5,36(sp)
a0002458:	00e68733          	add	a4,a3,a4
a000245c:	02e12023          	sw	a4,32(sp)
a0002460:	01012703          	lw	a4,16(sp)
a0002464:	f4e7c2e3          	blt	a5,a4,a00023a8 <bench_fib_run+0x13c>
a0002468:	03012503          	lw	a0,48(sp)
a000246c:	03c12283          	lw	t0,60(sp)
a0002470:	00812383          	lw	t2,8(sp)
a0002474:	00000593          	li	a1,0
a0002478:	00070313          	mv	t1,a4
a000247c:	00028693          	mv	a3,t0
a0002480:	00050713          	mv	a4,a0
a0002484:	00000793          	li	a5,0
a0002488:	00072603          	lw	a2,0(a4) # 80000000 <_heap_end+0xdfdf7e48>
a000248c:	00178793          	addi	a5,a5,1
a0002490:	00470713          	addi	a4,a4,4
a0002494:	00c6a023          	sw	a2,0(a3)
a0002498:	00468693          	addi	a3,a3,4
a000249c:	fe67c6e3          	blt	a5,t1,a0002488 <bench_fib_run+0x21c>
a00024a0:	00158593          	addi	a1,a1,1
a00024a4:	00750533          	add	a0,a0,t2
a00024a8:	007282b3          	add	t0,t0,t2
a00024ac:	fc65c8e3          	blt	a1,t1,a000247c <bench_fib_run+0x210>
a00024b0:	03812783          	lw	a5,56(sp)
a00024b4:	03412703          	lw	a4,52(sp)
a00024b8:	fff78793          	addi	a5,a5,-1
a00024bc:	40175713          	srai	a4,a4,0x1
a00024c0:	02f12c23          	sw	a5,56(sp)
a00024c4:	02e12a23          	sw	a4,52(sp)
a00024c8:	ea079ae3          	bnez	a5,a000237c <bench_fib_run+0x110>
a00024cc:	05412083          	lw	ra,84(sp)
a00024d0:	05012403          	lw	s0,80(sp)
a00024d4:	04c12483          	lw	s1,76(sp)
a00024d8:	05810113          	addi	sp,sp,88
a00024dc:	00008067          	ret
a00024e0:	01012783          	lw	a5,16(sp)
a00024e4:	fcf056e3          	blez	a5,a00024b0 <bench_fib_run+0x244>
a00024e8:	04412783          	lw	a5,68(sp)
a00024ec:	02012023          	sw	zero,32(sp)
a00024f0:	02012223          	sw	zero,36(sp)
a00024f4:	00f12623          	sw	a5,12(sp)
a00024f8:	02012783          	lw	a5,32(sp)
a00024fc:	03012703          	lw	a4,48(sp)
a0002500:	00012c23          	sw	zero,24(sp)
a0002504:	00279793          	slli	a5,a5,0x2
a0002508:	00f70733          	add	a4,a4,a5
a000250c:	00e12223          	sw	a4,4(sp)
a0002510:	02812703          	lw	a4,40(sp)
a0002514:	00e12a23          	sw	a4,20(sp)
a0002518:	02c12703          	lw	a4,44(sp)
a000251c:	00f707b3          	add	a5,a4,a5
a0002520:	00f12e23          	sw	a5,28(sp)
a0002524:	00412783          	lw	a5,4(sp)
a0002528:	01412683          	lw	a3,20(sp)
a000252c:	01c12483          	lw	s1,28(sp)
a0002530:	00000413          	li	s0,0
a0002534:	00040713          	mv	a4,s0
a0002538:	0007a023          	sw	zero,0(a5)
a000253c:	00068413          	mv	s0,a3
a0002540:	00042583          	lw	a1,0(s0)
a0002544:	0004a503          	lw	a0,0(s1)
a0002548:	00812783          	lw	a5,8(sp)
a000254c:	00e12023          	sw	a4,0(sp)
a0002550:	00448493          	addi	s1,s1,4
a0002554:	00f40433          	add	s0,s0,a5
a0002558:	75c030ef          	jal	ra,a0005cb4 <__mulsi3>
a000255c:	00012703          	lw	a4,0(sp)
a0002560:	00412783          	lw	a5,4(sp)
a0002564:	00a70733          	add	a4,a4,a0
a0002568:	00e7a023          	sw	a4,0(a5)
a000256c:	00c12783          	lw	a5,12(sp)
a0002570:	fcf498e3          	bne	s1,a5,a0002540 <bench_fib_run+0x2d4>
a0002574:	00412703          	lw	a4,4(sp)
a0002578:	01812783          	lw	a5,24(sp)
a000257c:	00470713          	addi	a4,a4,4
a0002580:	00e12223          	sw	a4,4(sp)
a0002584:	01412703          	lw	a4,20(sp)
a0002588:	00178793          	addi	a5,a5,1
a000258c:	00f12c23          	sw	a5,24(sp)
a0002590:	00470713          	addi	a4,a4,4
a0002594:	00e12a23          	sw	a4,20(sp)
a0002598:	01012703          	lw	a4,16(sp)
a000259c:	f8e794e3          	bne	a5,a4,a0002524 <bench_fib_run+0x2b8>
a00025a0:	02012683          	lw	a3,32(sp)
a00025a4:	02412783          	lw	a5,36(sp)
a00025a8:	00e686b3          	add	a3,a3,a4
a00025ac:	02d12023          	sw	a3,32(sp)
a00025b0:	00812683          	lw	a3,8(sp)
a00025b4:	00178793          	addi	a5,a5,1
a00025b8:	02f12223          	sw	a5,36(sp)
a00025bc:	00d486b3          	add	a3,s1,a3
a00025c0:	00d12623          	sw	a3,12(sp)
a00025c4:	f2e79ae3          	bne	a5,a4,a00024f8 <bench_fib_run+0x28c>
a00025c8:	04012603          	lw	a2,64(sp)
a00025cc:	02c12383          	lw	t2,44(sp)
a00025d0:	00812403          	lw	s0,8(sp)
a00025d4:	04812483          	lw	s1,72(sp)
a00025d8:	00000513          	li	a0,0
a00025dc:	00000593          	li	a1,0
a00025e0:	00070293          	mv	t0,a4
a00025e4:	40860333          	sub	t1,a2,s0
a00025e8:	00251713          	slli	a4,a0,0x2
a00025ec:	00e38733          	add	a4,t2,a4
a00025f0:	00030793          	mv	a5,t1
a00025f4:	0007a683          	lw	a3,0(a5)
a00025f8:	00478793          	addi	a5,a5,4
a00025fc:	00470713          	addi	a4,a4,4
a0002600:	fed72e23          	sw	a3,-4(a4)
a0002604:	fef618e3          	bne	a2,a5,a00025f4 <bench_fib_run+0x388>
a0002608:	00158593          	addi	a1,a1,1
a000260c:	00550533          	add	a0,a0,t0
a0002610:	40930633          	sub	a2,t1,s1
a0002614:	fc5598e3          	bne	a1,t0,a00025e4 <bench_fib_run+0x378>
a0002618:	d79ff06f          	j	a0002390 <bench_fib_run+0x124>

a000261c <bench_fib_validate>:
a000261c:	ff410113          	addi	sp,sp,-12
a0002620:	00006517          	auipc	a0,0x6
a0002624:	b2052503          	lw	a0,-1248(a0) # a0008140 <M>
a0002628:	00812223          	sw	s0,4(sp)
a000262c:	fff50413          	addi	s0,a0,-1
a0002630:	00040593          	mv	a1,s0
a0002634:	00112423          	sw	ra,8(sp)
a0002638:	67c030ef          	jal	ra,a0005cb4 <__mulsi3>
a000263c:	00850533          	add	a0,a0,s0
a0002640:	00251513          	slli	a0,a0,0x2
a0002644:	00006797          	auipc	a5,0x6
a0002648:	b047a783          	lw	a5,-1276(a5) # a0008148 <ans>
a000264c:	00a787b3          	add	a5,a5,a0
a0002650:	0007a503          	lw	a0,0(a5)
a0002654:	00006797          	auipc	a5,0x6
a0002658:	b4c7a783          	lw	a5,-1204(a5) # a00081a0 <setting>
a000265c:	00c7a783          	lw	a5,12(a5)
a0002660:	00812083          	lw	ra,8(sp)
a0002664:	00412403          	lw	s0,4(sp)
a0002668:	40f50533          	sub	a0,a0,a5
a000266c:	00153513          	seqz	a0,a0
a0002670:	00c10113          	addi	sp,sp,12
a0002674:	00008067          	ret

a0002678 <dfs>:
a0002678:	fe810113          	addi	sp,sp,-24
a000267c:	00812823          	sw	s0,16(sp)
a0002680:	00112a23          	sw	ra,20(sp)
a0002684:	00912623          	sw	s1,12(sp)
a0002688:	00006717          	auipc	a4,0x6
a000268c:	ac872703          	lw	a4,-1336(a4) # a0008150 <FULL>
a0002690:	00b12223          	sw	a1,4(sp)
a0002694:	00c12423          	sw	a2,8(sp)
a0002698:	00100413          	li	s0,1
a000269c:	04a70e63          	beq	a4,a0,a00026f8 <dfs+0x80>
a00026a0:	00c5e7b3          	or	a5,a1,a2
a00026a4:	00a7e7b3          	or	a5,a5,a0
a00026a8:	fff7c793          	not	a5,a5
a00026ac:	00e7f4b3          	and	s1,a5,a4
a00026b0:	00050693          	mv	a3,a0
a00026b4:	00000413          	li	s0,0
a00026b8:	04048063          	beqz	s1,a00026f8 <dfs+0x80>
a00026bc:	00812783          	lw	a5,8(sp)
a00026c0:	40900733          	neg	a4,s1
a00026c4:	00977733          	and	a4,a4,s1
a00026c8:	00e7e633          	or	a2,a5,a4
a00026cc:	00412783          	lw	a5,4(sp)
a00026d0:	00e6e533          	or	a0,a3,a4
a00026d4:	00165613          	srli	a2,a2,0x1
a00026d8:	00e7e5b3          	or	a1,a5,a4
a00026dc:	00159593          	slli	a1,a1,0x1
a00026e0:	00d12023          	sw	a3,0(sp)
a00026e4:	40e484b3          	sub	s1,s1,a4
a00026e8:	f91ff0ef          	jal	ra,a0002678 <dfs>
a00026ec:	00012683          	lw	a3,0(sp)
a00026f0:	00a40433          	add	s0,s0,a0
a00026f4:	fc0494e3          	bnez	s1,a00026bc <dfs+0x44>
a00026f8:	01412083          	lw	ra,20(sp)
a00026fc:	00040513          	mv	a0,s0
a0002700:	01012403          	lw	s0,16(sp)
a0002704:	00c12483          	lw	s1,12(sp)
a0002708:	01810113          	addi	sp,sp,24
a000270c:	00008067          	ret

a0002710 <bench_queen_prepare>:
a0002710:	00006797          	auipc	a5,0x6
a0002714:	a907a783          	lw	a5,-1392(a5) # a00081a0 <setting>
a0002718:	0007a703          	lw	a4,0(a5)
a000271c:	00006797          	auipc	a5,0x6
a0002720:	a207ac23          	sw	zero,-1480(a5) # a0008154 <ans>
a0002724:	00100793          	li	a5,1
a0002728:	00e797b3          	sll	a5,a5,a4
a000272c:	fff78793          	addi	a5,a5,-1
a0002730:	00006717          	auipc	a4,0x6
a0002734:	a2f72023          	sw	a5,-1504(a4) # a0008150 <FULL>
a0002738:	00008067          	ret

a000273c <bench_queen_run>:
a000273c:	ff410113          	addi	sp,sp,-12
a0002740:	00812223          	sw	s0,4(sp)
a0002744:	00912023          	sw	s1,0(sp)
a0002748:	00112423          	sw	ra,8(sp)
a000274c:	00006417          	auipc	s0,0x6
a0002750:	a0442403          	lw	s0,-1532(s0) # a0008150 <FULL>
a0002754:	00100493          	li	s1,1
a0002758:	02040463          	beqz	s0,a0002780 <bench_queen_run+0x44>
a000275c:	00000493          	li	s1,0
a0002760:	40800533          	neg	a0,s0
a0002764:	00857533          	and	a0,a0,s0
a0002768:	00155613          	srli	a2,a0,0x1
a000276c:	00151593          	slli	a1,a0,0x1
a0002770:	40a40433          	sub	s0,s0,a0
a0002774:	f05ff0ef          	jal	ra,a0002678 <dfs>
a0002778:	00a484b3          	add	s1,s1,a0
a000277c:	fe0412e3          	bnez	s0,a0002760 <bench_queen_run+0x24>
a0002780:	00812083          	lw	ra,8(sp)
a0002784:	00412403          	lw	s0,4(sp)
a0002788:	00006797          	auipc	a5,0x6
a000278c:	9c97a623          	sw	s1,-1588(a5) # a0008154 <ans>
a0002790:	00012483          	lw	s1,0(sp)
a0002794:	00c10113          	addi	sp,sp,12
a0002798:	00008067          	ret

a000279c <bench_queen_validate>:
a000279c:	00006797          	auipc	a5,0x6
a00027a0:	a047a783          	lw	a5,-1532(a5) # a00081a0 <setting>
a00027a4:	00c7a503          	lw	a0,12(a5)
a00027a8:	00006797          	auipc	a5,0x6
a00027ac:	9ac7a783          	lw	a5,-1620(a5) # a0008154 <ans>
a00027b0:	40f50533          	sub	a0,a0,a5
a00027b4:	00153513          	seqz	a0,a0
a00027b8:	00008067          	ret

a00027bc <_ZL9radixPassPiS_S_ii>:
a00027bc:	00170793          	addi	a5,a4,1
a00027c0:	00279793          	slli	a5,a5,0x2
a00027c4:	fe410113          	addi	sp,sp,-28
a00027c8:	00050313          	mv	t1,a0
a00027cc:	00078513          	mv	a0,a5
a00027d0:	00812a23          	sw	s0,20(sp)
a00027d4:	00912823          	sw	s1,16(sp)
a00027d8:	00e12423          	sw	a4,8(sp)
a00027dc:	00612223          	sw	t1,4(sp)
a00027e0:	00b12023          	sw	a1,0(sp)
a00027e4:	00068493          	mv	s1,a3
a00027e8:	00112c23          	sw	ra,24(sp)
a00027ec:	00f12623          	sw	a5,12(sp)
a00027f0:	00060413          	mv	s0,a2
a00027f4:	215020ef          	jal	ra,a0005208 <bench_alloc>
a00027f8:	00812703          	lw	a4,8(sp)
a00027fc:	00012583          	lw	a1,0(sp)
a0002800:	00412303          	lw	t1,4(sp)
a0002804:	00050693          	mv	a3,a0
a0002808:	0c074c63          	bltz	a4,a00028e0 <_ZL9radixPassPiS_S_ii+0x124>
a000280c:	00c12783          	lw	a5,12(sp)
a0002810:	00050613          	mv	a2,a0
a0002814:	00a787b3          	add	a5,a5,a0
a0002818:	00062023          	sw	zero,0(a2)
a000281c:	00460613          	addi	a2,a2,4
a0002820:	fec79ce3          	bne	a5,a2,a0002818 <_ZL9radixPassPiS_S_ii+0x5c>
a0002824:	04905063          	blez	s1,a0002864 <_ZL9radixPassPiS_S_ii+0xa8>
a0002828:	00249513          	slli	a0,s1,0x2
a000282c:	00030613          	mv	a2,t1
a0002830:	00650533          	add	a0,a0,t1
a0002834:	00062783          	lw	a5,0(a2)
a0002838:	00460613          	addi	a2,a2,4
a000283c:	00279793          	slli	a5,a5,0x2
a0002840:	00f407b3          	add	a5,s0,a5
a0002844:	0007a783          	lw	a5,0(a5)
a0002848:	00279793          	slli	a5,a5,0x2
a000284c:	00f687b3          	add	a5,a3,a5
a0002850:	0007a283          	lw	t0,0(a5)
a0002854:	00128293          	addi	t0,t0,1
a0002858:	0057a023          	sw	t0,0(a5)
a000285c:	fcc51ce3          	bne	a0,a2,a0002834 <_ZL9radixPassPiS_S_ii+0x78>
a0002860:	02074663          	bltz	a4,a000288c <_ZL9radixPassPiS_S_ii+0xd0>
a0002864:	00068793          	mv	a5,a3
a0002868:	00000513          	li	a0,0
a000286c:	00000613          	li	a2,0
a0002870:	0007a283          	lw	t0,0(a5)
a0002874:	00160613          	addi	a2,a2,1
a0002878:	00a7a023          	sw	a0,0(a5)
a000287c:	00550533          	add	a0,a0,t0
a0002880:	00478793          	addi	a5,a5,4
a0002884:	fec756e3          	bge	a4,a2,a0002870 <_ZL9radixPassPiS_S_ii+0xb4>
a0002888:	04905263          	blez	s1,a00028cc <_ZL9radixPassPiS_S_ii+0x110>
a000288c:	00000293          	li	t0,0
a0002890:	00032383          	lw	t2,0(t1)
a0002894:	00128293          	addi	t0,t0,1
a0002898:	00430313          	addi	t1,t1,4
a000289c:	00239793          	slli	a5,t2,0x2
a00028a0:	00f407b3          	add	a5,s0,a5
a00028a4:	0007a703          	lw	a4,0(a5)
a00028a8:	00271713          	slli	a4,a4,0x2
a00028ac:	00e68733          	add	a4,a3,a4
a00028b0:	00072783          	lw	a5,0(a4)
a00028b4:	00178613          	addi	a2,a5,1
a00028b8:	00279793          	slli	a5,a5,0x2
a00028bc:	00c72023          	sw	a2,0(a4)
a00028c0:	00f587b3          	add	a5,a1,a5
a00028c4:	0077a023          	sw	t2,0(a5)
a00028c8:	fc92c4e3          	blt	t0,s1,a0002890 <_ZL9radixPassPiS_S_ii+0xd4>
a00028cc:	01812083          	lw	ra,24(sp)
a00028d0:	01412403          	lw	s0,20(sp)
a00028d4:	01012483          	lw	s1,16(sp)
a00028d8:	01c10113          	addi	sp,sp,28
a00028dc:	00008067          	ret
a00028e0:	f49044e3          	bgtz	s1,a0002828 <_ZL9radixPassPiS_S_ii+0x6c>
a00028e4:	fe9ff06f          	j	a00028cc <_ZL9radixPassPiS_S_ii+0x110>

a00028e8 <_Z11suffixArrayPiS_ii>:
a00028e8:	fac10113          	addi	sp,sp,-84
a00028ec:	00050713          	mv	a4,a0
a00028f0:	00058793          	mv	a5,a1
a00028f4:	00260513          	addi	a0,a2,2
a00028f8:	00300593          	li	a1,3
a00028fc:	04112823          	sw	ra,80(sp)
a0002900:	02d12c23          	sw	a3,56(sp)
a0002904:	00e12423          	sw	a4,8(sp)
a0002908:	04812623          	sw	s0,76(sp)
a000290c:	04912423          	sw	s1,72(sp)
a0002910:	00060413          	mv	s0,a2
a0002914:	02f12a23          	sw	a5,52(sp)
a0002918:	2e8030ef          	jal	ra,a0005c00 <__divsi3>
a000291c:	00300593          	li	a1,3
a0002920:	00050793          	mv	a5,a0
a0002924:	00040513          	mv	a0,s0
a0002928:	00078493          	mv	s1,a5
a000292c:	02812623          	sw	s0,44(sp)
a0002930:	2d0030ef          	jal	ra,a0005c00 <__divsi3>
a0002934:	00912023          	sw	s1,0(sp)
a0002938:	009504b3          	add	s1,a0,s1
a000293c:	00348713          	addi	a4,s1,3
a0002940:	00271713          	slli	a4,a4,0x2
a0002944:	00070513          	mv	a0,a4
a0002948:	00248413          	addi	s0,s1,2
a000294c:	00241413          	slli	s0,s0,0x2
a0002950:	02912423          	sw	s1,40(sp)
a0002954:	00e12823          	sw	a4,16(sp)
a0002958:	0b1020ef          	jal	ra,a0005208 <bench_alloc>
a000295c:	01012703          	lw	a4,16(sp)
a0002960:	ffc40793          	addi	a5,s0,-4
a0002964:	008506b3          	add	a3,a0,s0
a0002968:	0006a023          	sw	zero,0(a3)
a000296c:	ff840493          	addi	s1,s0,-8
a0002970:	00f506b3          	add	a3,a0,a5
a0002974:	0006a023          	sw	zero,0(a3)
a0002978:	009506b3          	add	a3,a0,s1
a000297c:	00a12223          	sw	a0,4(sp)
a0002980:	0006a023          	sw	zero,0(a3)
a0002984:	00070513          	mv	a0,a4
a0002988:	00f12623          	sw	a5,12(sp)
a000298c:	07d020ef          	jal	ra,a0005208 <bench_alloc>
a0002990:	00c12783          	lw	a5,12(sp)
a0002994:	00850433          	add	s0,a0,s0
a0002998:	00042023          	sw	zero,0(s0)
a000299c:	00f507b3          	add	a5,a0,a5
a00029a0:	0007a023          	sw	zero,0(a5)
a00029a4:	00012783          	lw	a5,0(sp)
a00029a8:	009504b3          	add	s1,a0,s1
a00029ac:	02a12223          	sw	a0,36(sp)
a00029b0:	00279693          	slli	a3,a5,0x2
a00029b4:	00068513          	mv	a0,a3
a00029b8:	0004a023          	sw	zero,0(s1)
a00029bc:	04d12023          	sw	a3,64(sp)
a00029c0:	00068493          	mv	s1,a3
a00029c4:	045020ef          	jal	ra,a0005208 <bench_alloc>
a00029c8:	00050793          	mv	a5,a0
a00029cc:	00048513          	mv	a0,s1
a00029d0:	02f12e23          	sw	a5,60(sp)
a00029d4:	035020ef          	jal	ra,a0005208 <bench_alloc>
a00029d8:	02c12403          	lw	s0,44(sp)
a00029dc:	00050793          	mv	a5,a0
a00029e0:	00300593          	li	a1,3
a00029e4:	00140513          	addi	a0,s0,1
a00029e8:	02f12823          	sw	a5,48(sp)
a00029ec:	214030ef          	jal	ra,a0005c00 <__divsi3>
a00029f0:	00012783          	lw	a5,0(sp)
a00029f4:	00000493          	li	s1,0
a00029f8:	40a787b3          	sub	a5,a5,a0
a00029fc:	00f12623          	sw	a5,12(sp)
a0002a00:	00f407b3          	add	a5,s0,a5
a0002a04:	00f12823          	sw	a5,16(sp)
a0002a08:	00000413          	li	s0,0
a0002a0c:	04f05463          	blez	a5,a0002a54 <_Z11suffixArrayPiS_ii+0x16c>
a0002a10:	01012783          	lw	a5,16(sp)
a0002a14:	00148493          	addi	s1,s1,1
a0002a18:	00300593          	li	a1,3
a0002a1c:	00048513          	mv	a0,s1
a0002a20:	02f48a63          	beq	s1,a5,a0002a54 <_Z11suffixArrayPiS_ii+0x16c>
a0002a24:	260030ef          	jal	ra,a0005c84 <__modsi3>
a0002a28:	00412703          	lw	a4,4(sp)
a0002a2c:	00241793          	slli	a5,s0,0x2
a0002a30:	00f707b3          	add	a5,a4,a5
a0002a34:	fc050ee3          	beqz	a0,a0002a10 <_Z11suffixArrayPiS_ii+0x128>
a0002a38:	0097a023          	sw	s1,0(a5)
a0002a3c:	01012783          	lw	a5,16(sp)
a0002a40:	00148493          	addi	s1,s1,1
a0002a44:	00140413          	addi	s0,s0,1
a0002a48:	00300593          	li	a1,3
a0002a4c:	00048513          	mv	a0,s1
a0002a50:	fcf49ae3          	bne	s1,a5,a0002a24 <_Z11suffixArrayPiS_ii+0x13c>
a0002a54:	02812483          	lw	s1,40(sp)
a0002a58:	00812403          	lw	s0,8(sp)
a0002a5c:	02412583          	lw	a1,36(sp)
a0002a60:	00412503          	lw	a0,4(sp)
a0002a64:	03812703          	lw	a4,56(sp)
a0002a68:	00840613          	addi	a2,s0,8
a0002a6c:	00048693          	mv	a3,s1
a0002a70:	d4dff0ef          	jal	ra,a00027bc <_ZL9radixPassPiS_S_ii>
a0002a74:	03812703          	lw	a4,56(sp)
a0002a78:	00412583          	lw	a1,4(sp)
a0002a7c:	02412503          	lw	a0,36(sp)
a0002a80:	00048693          	mv	a3,s1
a0002a84:	00440613          	addi	a2,s0,4
a0002a88:	d35ff0ef          	jal	ra,a00027bc <_ZL9radixPassPiS_S_ii>
a0002a8c:	03812703          	lw	a4,56(sp)
a0002a90:	02412583          	lw	a1,36(sp)
a0002a94:	00412503          	lw	a0,4(sp)
a0002a98:	00048693          	mv	a3,s1
a0002a9c:	00040613          	mv	a2,s0
a0002aa0:	d1dff0ef          	jal	ra,a00027bc <_ZL9radixPassPiS_S_ii>
a0002aa4:	16905e63          	blez	s1,a0002c20 <_Z11suffixArrayPiS_ii+0x338>
a0002aa8:	02812783          	lw	a5,40(sp)
a0002aac:	02412403          	lw	s0,36(sp)
a0002ab0:	00000693          	li	a3,0
a0002ab4:	00279793          	slli	a5,a5,0x2
a0002ab8:	008787b3          	add	a5,a5,s0
a0002abc:	02f12023          	sw	a5,32(sp)
a0002ac0:	fff00793          	li	a5,-1
a0002ac4:	fff00313          	li	t1,-1
a0002ac8:	fff00613          	li	a2,-1
a0002acc:	00f12823          	sw	a5,16(sp)
a0002ad0:	00068493          	mv	s1,a3
a0002ad4:	04812223          	sw	s0,68(sp)
a0002ad8:	06c0006f          	j	a0002b44 <_Z11suffixArrayPiS_ii+0x25c>
a0002adc:	00148493          	addi	s1,s1,1
a0002ae0:	00512823          	sw	t0,16(sp)
a0002ae4:	00c12e23          	sw	a2,28(sp)
a0002ae8:	00612c23          	sw	t1,24(sp)
a0002aec:	00e12a23          	sw	a4,20(sp)
a0002af0:	110030ef          	jal	ra,a0005c00 <__divsi3>
a0002af4:	01412703          	lw	a4,20(sp)
a0002af8:	00050793          	mv	a5,a0
a0002afc:	00300593          	li	a1,3
a0002b00:	00070513          	mv	a0,a4
a0002b04:	00f12a23          	sw	a5,20(sp)
a0002b08:	17c030ef          	jal	ra,a0005c84 <__modsi3>
a0002b0c:	00012703          	lw	a4,0(sp)
a0002b10:	01412783          	lw	a5,20(sp)
a0002b14:	00412683          	lw	a3,4(sp)
a0002b18:	01812303          	lw	t1,24(sp)
a0002b1c:	00f70733          	add	a4,a4,a5
a0002b20:	00271713          	slli	a4,a4,0x2
a0002b24:	00e68733          	add	a4,a3,a4
a0002b28:	00100693          	li	a3,1
a0002b2c:	01c12603          	lw	a2,28(sp)
a0002b30:	04d50a63          	beq	a0,a3,a0002b84 <_Z11suffixArrayPiS_ii+0x29c>
a0002b34:	02012783          	lw	a5,32(sp)
a0002b38:	00972023          	sw	s1,0(a4)
a0002b3c:	00440413          	addi	s0,s0,4
a0002b40:	06878063          	beq	a5,s0,a0002ba0 <_Z11suffixArrayPiS_ii+0x2b8>
a0002b44:	00042703          	lw	a4,0(s0)
a0002b48:	00812683          	lw	a3,8(sp)
a0002b4c:	00060393          	mv	t2,a2
a0002b50:	00271793          	slli	a5,a4,0x2
a0002b54:	00f687b3          	add	a5,a3,a5
a0002b58:	0007a283          	lw	t0,0(a5)
a0002b5c:	0047a603          	lw	a2,4(a5)
a0002b60:	00030093          	mv	ra,t1
a0002b64:	0087a303          	lw	t1,8(a5)
a0002b68:	01012783          	lw	a5,16(sp)
a0002b6c:	00300593          	li	a1,3
a0002b70:	00070513          	mv	a0,a4
a0002b74:	f6f294e3          	bne	t0,a5,a0002adc <_Z11suffixArrayPiS_ii+0x1f4>
a0002b78:	f6c392e3          	bne	t2,a2,a0002adc <_Z11suffixArrayPiS_ii+0x1f4>
a0002b7c:	f66090e3          	bne	ra,t1,a0002adc <_Z11suffixArrayPiS_ii+0x1f4>
a0002b80:	f65ff06f          	j	a0002ae4 <_Z11suffixArrayPiS_ii+0x1fc>
a0002b84:	00412703          	lw	a4,4(sp)
a0002b88:	00279793          	slli	a5,a5,0x2
a0002b8c:	00440413          	addi	s0,s0,4
a0002b90:	00f707b3          	add	a5,a4,a5
a0002b94:	0097a023          	sw	s1,0(a5)
a0002b98:	02012783          	lw	a5,32(sp)
a0002b9c:	fa8794e3          	bne	a5,s0,a0002b44 <_Z11suffixArrayPiS_ii+0x25c>
a0002ba0:	02812783          	lw	a5,40(sp)
a0002ba4:	400005b7          	lui	a1,0x40000
a0002ba8:	04412283          	lw	t0,68(sp)
a0002bac:	00412603          	lw	a2,4(sp)
a0002bb0:	00048693          	mv	a3,s1
a0002bb4:	00000713          	li	a4,0
a0002bb8:	fff58593          	addi	a1,a1,-1 # 3fffffff <_data_load_start+0xfff8423>
a0002bbc:	2ef4ce63          	blt	s1,a5,a0002eb8 <_Z11suffixArrayPiS_ii+0x5d0>
a0002bc0:	02812683          	lw	a3,40(sp)
a0002bc4:	02412503          	lw	a0,36(sp)
a0002bc8:	00062783          	lw	a5,0(a2)
a0002bcc:	00460613          	addi	a2,a2,4
a0002bd0:	00b787b3          	add	a5,a5,a1
a0002bd4:	00279793          	slli	a5,a5,0x2
a0002bd8:	00f507b3          	add	a5,a0,a5
a0002bdc:	00e7a023          	sw	a4,0(a5)
a0002be0:	00170713          	addi	a4,a4,1
a0002be4:	fee692e3          	bne	a3,a4,a0002bc8 <_Z11suffixArrayPiS_ii+0x2e0>
a0002be8:	02012583          	lw	a1,32(sp)
a0002bec:	00012503          	lw	a0,0(sp)
a0002bf0:	03c12303          	lw	t1,60(sp)
a0002bf4:	00000613          	li	a2,0
a0002bf8:	0002a703          	lw	a4,0(t0)
a0002bfc:	00261793          	slli	a5,a2,0x2
a0002c00:	00428293          	addi	t0,t0,4
a0002c04:	00171693          	slli	a3,a4,0x1
a0002c08:	00f307b3          	add	a5,t1,a5
a0002c0c:	00e686b3          	add	a3,a3,a4
a0002c10:	00a75663          	bge	a4,a0,a0002c1c <_Z11suffixArrayPiS_ii+0x334>
a0002c14:	00d7a023          	sw	a3,0(a5)
a0002c18:	00160613          	addi	a2,a2,1
a0002c1c:	fc559ee3          	bne	a1,t0,a0002bf8 <_Z11suffixArrayPiS_ii+0x310>
a0002c20:	03812703          	lw	a4,56(sp)
a0002c24:	00012683          	lw	a3,0(sp)
a0002c28:	00812603          	lw	a2,8(sp)
a0002c2c:	03012583          	lw	a1,48(sp)
a0002c30:	03c12503          	lw	a0,60(sp)
a0002c34:	b89ff0ef          	jal	ra,a00027bc <_ZL9radixPassPiS_S_ii>
a0002c38:	02c12783          	lw	a5,44(sp)
a0002c3c:	1af05a63          	blez	a5,a0002df0 <_Z11suffixArrayPiS_ii+0x508>
a0002c40:	02812783          	lw	a5,40(sp)
a0002c44:	02412703          	lw	a4,36(sp)
a0002c48:	00012823          	sw	zero,16(sp)
a0002c4c:	00279793          	slli	a5,a5,0x2
a0002c50:	00f707b3          	add	a5,a4,a5
a0002c54:	04f12223          	sw	a5,68(sp)
a0002c58:	04012703          	lw	a4,64(sp)
a0002c5c:	03012783          	lw	a5,48(sp)
a0002c60:	00e787b3          	add	a5,a5,a4
a0002c64:	02f12e23          	sw	a5,60(sp)
a0002c68:	00000713          	li	a4,0
a0002c6c:	0540006f          	j	a0002cc0 <_Z11suffixArrayPiS_ii+0x3d8>
a0002c70:	00179693          	slli	a3,a5,0x1
a0002c74:	00f686b3          	add	a3,a3,a5
a0002c78:	00168693          	addi	a3,a3,1
a0002c7c:	00269613          	slli	a2,a3,0x2
a0002c80:	00c48633          	add	a2,s1,a2
a0002c84:	00062603          	lw	a2,0(a2)
a0002c88:	0e564863          	blt	a2,t0,a0002d78 <_Z11suffixArrayPiS_ii+0x490>
a0002c8c:	16560c63          	beq	a2,t0,a0002e04 <_Z11suffixArrayPiS_ii+0x51c>
a0002c90:	03412783          	lw	a5,52(sp)
a0002c94:	00271613          	slli	a2,a4,0x2
a0002c98:	00012683          	lw	a3,0(sp)
a0002c9c:	00c787b3          	add	a5,a5,a2
a0002ca0:	0067a023          	sw	t1,0(a5)
a0002ca4:	01012783          	lw	a5,16(sp)
a0002ca8:	00178793          	addi	a5,a5,1
a0002cac:	00f12823          	sw	a5,16(sp)
a0002cb0:	18f68063          	beq	a3,a5,a0002e30 <_Z11suffixArrayPiS_ii+0x548>
a0002cb4:	02c12783          	lw	a5,44(sp)
a0002cb8:	00170713          	addi	a4,a4,1
a0002cbc:	12f75a63          	bge	a4,a5,a0002df0 <_Z11suffixArrayPiS_ii+0x508>
a0002cc0:	01012783          	lw	a5,16(sp)
a0002cc4:	00300593          	li	a1,3
a0002cc8:	02e12023          	sw	a4,32(sp)
a0002ccc:	00279413          	slli	s0,a5,0x2
a0002cd0:	03012783          	lw	a5,48(sp)
a0002cd4:	00878433          	add	s0,a5,s0
a0002cd8:	00c12783          	lw	a5,12(sp)
a0002cdc:	00042303          	lw	t1,0(s0)
a0002ce0:	00279493          	slli	s1,a5,0x2
a0002ce4:	02412783          	lw	a5,36(sp)
a0002ce8:	00231613          	slli	a2,t1,0x2
a0002cec:	00030513          	mv	a0,t1
a0002cf0:	009787b3          	add	a5,a5,s1
a0002cf4:	00812483          	lw	s1,8(sp)
a0002cf8:	02f12c23          	sw	a5,56(sp)
a0002cfc:	0007a783          	lw	a5,0(a5)
a0002d00:	00c48633          	add	a2,s1,a2
a0002d04:	00612c23          	sw	t1,24(sp)
a0002d08:	00f12e23          	sw	a5,28(sp)
a0002d0c:	00c12a23          	sw	a2,20(sp)
a0002d10:	6f1020ef          	jal	ra,a0005c00 <__divsi3>
a0002d14:	01412603          	lw	a2,20(sp)
a0002d18:	00012683          	lw	a3,0(sp)
a0002d1c:	01c12783          	lw	a5,28(sp)
a0002d20:	00062283          	lw	t0,0(a2)
a0002d24:	01812303          	lw	t1,24(sp)
a0002d28:	02012703          	lw	a4,32(sp)
a0002d2c:	f4d7c2e3          	blt	a5,a3,a0002c70 <_Z11suffixArrayPiS_ii+0x388>
a0002d30:	00012683          	lw	a3,0(sp)
a0002d34:	00812483          	lw	s1,8(sp)
a0002d38:	40d787b3          	sub	a5,a5,a3
a0002d3c:	00179593          	slli	a1,a5,0x1
a0002d40:	00f585b3          	add	a1,a1,a5
a0002d44:	00258693          	addi	a3,a1,2
a0002d48:	00269393          	slli	t2,a3,0x2
a0002d4c:	007483b3          	add	t2,s1,t2
a0002d50:	0003a383          	lw	t2,0(t2)
a0002d54:	0253c263          	blt	t2,t0,a0002d78 <_Z11suffixArrayPiS_ii+0x490>
a0002d58:	f2539ce3          	bne	t2,t0,a0002c90 <_Z11suffixArrayPiS_ii+0x3a8>
a0002d5c:	00812283          	lw	t0,8(sp)
a0002d60:	00358593          	addi	a1,a1,3
a0002d64:	00259593          	slli	a1,a1,0x2
a0002d68:	00b285b3          	add	a1,t0,a1
a0002d6c:	0005a583          	lw	a1,0(a1)
a0002d70:	00462603          	lw	a2,4(a2)
a0002d74:	12c5d863          	bge	a1,a2,a0002ea4 <_Z11suffixArrayPiS_ii+0x5bc>
a0002d78:	03412603          	lw	a2,52(sp)
a0002d7c:	00271793          	slli	a5,a4,0x2
a0002d80:	00f60633          	add	a2,a2,a5
a0002d84:	00d62023          	sw	a3,0(a2)
a0002d88:	00c12683          	lw	a3,12(sp)
a0002d8c:	02812603          	lw	a2,40(sp)
a0002d90:	00168693          	addi	a3,a3,1
a0002d94:	00d12623          	sw	a3,12(sp)
a0002d98:	f0d61ee3          	bne	a2,a3,a0002cb4 <_Z11suffixArrayPiS_ii+0x3cc>
a0002d9c:	00012683          	lw	a3,0(sp)
a0002da0:	01012603          	lw	a2,16(sp)
a0002da4:	00170713          	addi	a4,a4,1
a0002da8:	f0d656e3          	bge	a2,a3,a0002cb4 <_Z11suffixArrayPiS_ii+0x3cc>
a0002dac:	03412683          	lw	a3,52(sp)
a0002db0:	03c12603          	lw	a2,60(sp)
a0002db4:	00478793          	addi	a5,a5,4
a0002db8:	00f687b3          	add	a5,a3,a5
a0002dbc:	00042683          	lw	a3,0(s0)
a0002dc0:	00440413          	addi	s0,s0,4
a0002dc4:	00478793          	addi	a5,a5,4
a0002dc8:	fed7ae23          	sw	a3,-4(a5)
a0002dcc:	fe8618e3          	bne	a2,s0,a0002dbc <_Z11suffixArrayPiS_ii+0x4d4>
a0002dd0:	01012783          	lw	a5,16(sp)
a0002dd4:	40f70733          	sub	a4,a4,a5
a0002dd8:	00012783          	lw	a5,0(sp)
a0002ddc:	00f70733          	add	a4,a4,a5
a0002de0:	00f12823          	sw	a5,16(sp)
a0002de4:	02c12783          	lw	a5,44(sp)
a0002de8:	00170713          	addi	a4,a4,1
a0002dec:	ecf74ae3          	blt	a4,a5,a0002cc0 <_Z11suffixArrayPiS_ii+0x3d8>
a0002df0:	05012083          	lw	ra,80(sp)
a0002df4:	04c12403          	lw	s0,76(sp)
a0002df8:	04812483          	lw	s1,72(sp)
a0002dfc:	05410113          	addi	sp,sp,84
a0002e00:	00008067          	ret
a0002e04:	00012603          	lw	a2,0(sp)
a0002e08:	00c787b3          	add	a5,a5,a2
a0002e0c:	00412603          	lw	a2,4(sp)
a0002e10:	00279793          	slli	a5,a5,0x2
a0002e14:	00251513          	slli	a0,a0,0x2
a0002e18:	00f607b3          	add	a5,a2,a5
a0002e1c:	00a60533          	add	a0,a2,a0
a0002e20:	0007a783          	lw	a5,0(a5)
a0002e24:	00052603          	lw	a2,0(a0)
a0002e28:	e6f644e3          	blt	a2,a5,a0002c90 <_Z11suffixArrayPiS_ii+0x3a8>
a0002e2c:	f4dff06f          	j	a0002d78 <_Z11suffixArrayPiS_ii+0x490>
a0002e30:	02812783          	lw	a5,40(sp)
a0002e34:	00c12683          	lw	a3,12(sp)
a0002e38:	00170713          	addi	a4,a4,1
a0002e3c:	e6f6dce3          	bge	a3,a5,a0002cb4 <_Z11suffixArrayPiS_ii+0x3cc>
a0002e40:	03412783          	lw	a5,52(sp)
a0002e44:	03812483          	lw	s1,56(sp)
a0002e48:	04412303          	lw	t1,68(sp)
a0002e4c:	00012503          	lw	a0,0(sp)
a0002e50:	00460613          	addi	a2,a2,4
a0002e54:	00c78633          	add	a2,a5,a2
a0002e58:	0004a683          	lw	a3,0(s1)
a0002e5c:	40a682b3          	sub	t0,a3,a0
a0002e60:	00129793          	slli	a5,t0,0x1
a0002e64:	00169593          	slli	a1,a3,0x1
a0002e68:	005787b3          	add	a5,a5,t0
a0002e6c:	00d585b3          	add	a1,a1,a3
a0002e70:	00278793          	addi	a5,a5,2
a0002e74:	00a6d463          	bge	a3,a0,a0002e7c <_Z11suffixArrayPiS_ii+0x594>
a0002e78:	00158793          	addi	a5,a1,1
a0002e7c:	00f62023          	sw	a5,0(a2)
a0002e80:	00448493          	addi	s1,s1,4
a0002e84:	00460613          	addi	a2,a2,4
a0002e88:	fc9318e3          	bne	t1,s1,a0002e58 <_Z11suffixArrayPiS_ii+0x570>
a0002e8c:	00c12783          	lw	a5,12(sp)
a0002e90:	40f70733          	sub	a4,a4,a5
a0002e94:	02812783          	lw	a5,40(sp)
a0002e98:	00f70733          	add	a4,a4,a5
a0002e9c:	00f12623          	sw	a5,12(sp)
a0002ea0:	e15ff06f          	j	a0002cb4 <_Z11suffixArrayPiS_ii+0x3cc>
a0002ea4:	dec596e3          	bne	a1,a2,a0002c90 <_Z11suffixArrayPiS_ii+0x3a8>
a0002ea8:	00012603          	lw	a2,0(sp)
a0002eac:	00178793          	addi	a5,a5,1
a0002eb0:	00a60533          	add	a0,a2,a0
a0002eb4:	f59ff06f          	j	a0002e0c <_Z11suffixArrayPiS_ii+0x524>
a0002eb8:	02412483          	lw	s1,36(sp)
a0002ebc:	00412403          	lw	s0,4(sp)
a0002ec0:	00078613          	mv	a2,a5
a0002ec4:	00048593          	mv	a1,s1
a0002ec8:	00040513          	mv	a0,s0
a0002ecc:	00512823          	sw	t0,16(sp)
a0002ed0:	a19ff0ef          	jal	ra,a00028e8 <_Z11suffixArrayPiS_ii>
a0002ed4:	01012283          	lw	t0,16(sp)
a0002ed8:	02812603          	lw	a2,40(sp)
a0002edc:	00048693          	mv	a3,s1
a0002ee0:	00000713          	li	a4,0
a0002ee4:	00040593          	mv	a1,s0
a0002ee8:	0006a783          	lw	a5,0(a3)
a0002eec:	00170713          	addi	a4,a4,1
a0002ef0:	00468693          	addi	a3,a3,4
a0002ef4:	00279793          	slli	a5,a5,0x2
a0002ef8:	00f587b3          	add	a5,a1,a5
a0002efc:	00e7a023          	sw	a4,0(a5)
a0002f00:	fec714e3          	bne	a4,a2,a0002ee8 <_Z11suffixArrayPiS_ii+0x600>
a0002f04:	ce5ff06f          	j	a0002be8 <_Z11suffixArrayPiS_ii+0x300>

a0002f08 <bench_ssort_prepare>:
a0002f08:	00005797          	auipc	a5,0x5
a0002f0c:	2987a783          	lw	a5,664(a5) # a00081a0 <setting>
a0002f10:	0007a783          	lw	a5,0(a5)
a0002f14:	ff010113          	addi	sp,sp,-16
a0002f18:	00912223          	sw	s1,4(sp)
a0002f1c:	00100513          	li	a0,1
a0002f20:	00005497          	auipc	s1,0x5
a0002f24:	23848493          	addi	s1,s1,568 # a0008158 <_ZL1N>
a0002f28:	00112623          	sw	ra,12(sp)
a0002f2c:	00f4a023          	sw	a5,0(s1)
a0002f30:	00812423          	sw	s0,8(sp)
a0002f34:	37c020ef          	jal	ra,a00052b0 <bench_srand>
a0002f38:	0004a503          	lw	a0,0(s1)
a0002f3c:	00a50513          	addi	a0,a0,10
a0002f40:	00251513          	slli	a0,a0,0x2
a0002f44:	2c4020ef          	jal	ra,a0005208 <bench_alloc>
a0002f48:	0004a783          	lw	a5,0(s1)
a0002f4c:	00005717          	auipc	a4,0x5
a0002f50:	21070713          	addi	a4,a4,528 # a000815c <_ZL1s>
a0002f54:	00a72023          	sw	a0,0(a4)
a0002f58:	00a78513          	addi	a0,a5,10
a0002f5c:	00251513          	slli	a0,a0,0x2
a0002f60:	2a8020ef          	jal	ra,a0005208 <bench_alloc>
a0002f64:	0004a783          	lw	a5,0(s1)
a0002f68:	00005717          	auipc	a4,0x5
a0002f6c:	1ea72c23          	sw	a0,504(a4) # a0008160 <_ZL2sa>
a0002f70:	04f05063          	blez	a5,a0002fb0 <bench_ssort_prepare+0xa8>
a0002f74:	00000413          	li	s0,0
a0002f78:	34c020ef          	jal	ra,a00052c4 <bench_rand>
a0002f7c:	00005797          	auipc	a5,0x5
a0002f80:	1e078793          	addi	a5,a5,480 # a000815c <_ZL1s>
a0002f84:	0007a783          	lw	a5,0(a5)
a0002f88:	00241713          	slli	a4,s0,0x2
a0002f8c:	01a00593          	li	a1,26
a0002f90:	00e787b3          	add	a5,a5,a4
a0002f94:	00f12023          	sw	a5,0(sp)
a0002f98:	4b9020ef          	jal	ra,a0005c50 <__umodsi3>
a0002f9c:	00012783          	lw	a5,0(sp)
a0002fa0:	0004a703          	lw	a4,0(s1)
a0002fa4:	00140413          	addi	s0,s0,1
a0002fa8:	00a7a023          	sw	a0,0(a5)
a0002fac:	fce446e3          	blt	s0,a4,a0002f78 <bench_ssort_prepare+0x70>
a0002fb0:	00c12083          	lw	ra,12(sp)
a0002fb4:	00812403          	lw	s0,8(sp)
a0002fb8:	00412483          	lw	s1,4(sp)
a0002fbc:	01010113          	addi	sp,sp,16
a0002fc0:	00008067          	ret

a0002fc4 <bench_ssort_run>:
a0002fc4:	01a00693          	li	a3,26
a0002fc8:	00005617          	auipc	a2,0x5
a0002fcc:	19062603          	lw	a2,400(a2) # a0008158 <_ZL1N>
a0002fd0:	00005597          	auipc	a1,0x5
a0002fd4:	1905a583          	lw	a1,400(a1) # a0008160 <_ZL2sa>
a0002fd8:	00005517          	auipc	a0,0x5
a0002fdc:	18452503          	lw	a0,388(a0) # a000815c <_ZL1s>
a0002fe0:	909ff06f          	j	a00028e8 <_Z11suffixArrayPiS_ii>

a0002fe4 <bench_ssort_validate>:
a0002fe4:	00005597          	auipc	a1,0x5
a0002fe8:	1745a583          	lw	a1,372(a1) # a0008158 <_ZL1N>
a0002fec:	00005517          	auipc	a0,0x5
a0002ff0:	17452503          	lw	a0,372(a0) # a0008160 <_ZL2sa>
a0002ff4:	00259593          	slli	a1,a1,0x2
a0002ff8:	ff410113          	addi	sp,sp,-12
a0002ffc:	00b505b3          	add	a1,a0,a1
a0003000:	00112423          	sw	ra,8(sp)
a0003004:	310020ef          	jal	ra,a0005314 <checksum>
a0003008:	00005797          	auipc	a5,0x5
a000300c:	1987a783          	lw	a5,408(a5) # a00081a0 <setting>
a0003010:	00c7a783          	lw	a5,12(a5)
a0003014:	00812083          	lw	ra,8(sp)
a0003018:	40a78533          	sub	a0,a5,a0
a000301c:	00153513          	seqz	a0,a0
a0003020:	00c10113          	addi	sp,sp,12
a0003024:	00008067          	ret

a0003028 <bench_sieve_prepare>:
a0003028:	00005797          	auipc	a5,0x5
a000302c:	1787a783          	lw	a5,376(a5) # a00081a0 <setting>
a0003030:	0007a783          	lw	a5,0(a5)
a0003034:	ff410113          	addi	sp,sp,-12
a0003038:	00812223          	sw	s0,4(sp)
a000303c:	41f7d513          	srai	a0,a5,0x1f
a0003040:	00757513          	andi	a0,a0,7
a0003044:	00f50533          	add	a0,a0,a5
a0003048:	40355513          	srai	a0,a0,0x3
a000304c:	00005417          	auipc	s0,0x5
a0003050:	11840413          	addi	s0,s0,280 # a0008164 <N>
a0003054:	08050513          	addi	a0,a0,128
a0003058:	00f42023          	sw	a5,0(s0)
a000305c:	00112423          	sw	ra,8(sp)
a0003060:	1a8020ef          	jal	ra,a0005208 <bench_alloc>
a0003064:	00042783          	lw	a5,0(s0)
a0003068:	00005717          	auipc	a4,0x5
a000306c:	10a72223          	sw	a0,260(a4) # a000816c <primes>
a0003070:	fe100693          	li	a3,-31
a0003074:	41f7d713          	srai	a4,a5,0x1f
a0003078:	01f77713          	andi	a4,a4,31
a000307c:	00f70733          	add	a4,a4,a5
a0003080:	02d7c063          	blt	a5,a3,a00030a0 <bench_sieve_prepare+0x78>
a0003084:	40575713          	srai	a4,a4,0x5
a0003088:	00000793          	li	a5,0
a000308c:	fff00693          	li	a3,-1
a0003090:	00d52023          	sw	a3,0(a0)
a0003094:	00178793          	addi	a5,a5,1
a0003098:	00450513          	addi	a0,a0,4
a000309c:	fef75ae3          	bge	a4,a5,a0003090 <bench_sieve_prepare+0x68>
a00030a0:	00812083          	lw	ra,8(sp)
a00030a4:	00412403          	lw	s0,4(sp)
a00030a8:	00c10113          	addi	sp,sp,12
a00030ac:	00008067          	ret

a00030b0 <bench_sieve_run>:
a00030b0:	fec10113          	addi	sp,sp,-20
a00030b4:	00812623          	sw	s0,12(sp)
a00030b8:	00112823          	sw	ra,16(sp)
a00030bc:	00912423          	sw	s1,8(sp)
a00030c0:	00005417          	auipc	s0,0x5
a00030c4:	0a442403          	lw	s0,164(s0) # a0008164 <N>
a00030c8:	12805e63          	blez	s0,a0003204 <bench_sieve_run+0x154>
a00030cc:	00005617          	auipc	a2,0x5
a00030d0:	0a060613          	addi	a2,a2,160 # a000816c <primes>
a00030d4:	00062683          	lw	a3,0(a2)
a00030d8:	0006a703          	lw	a4,0(a3)
a00030dc:	00175713          	srli	a4,a4,0x1
a00030e0:	00177713          	andi	a4,a4,1
a00030e4:	00071c63          	bnez	a4,a00030fc <bench_sieve_run+0x4c>
a00030e8:	1080006f          	j	a00031f0 <bench_sieve_run+0x140>
a00030ec:	0007a783          	lw	a5,0(a5)
a00030f0:	00e7d7b3          	srl	a5,a5,a4
a00030f4:	0017f793          	andi	a5,a5,1
a00030f8:	0e078c63          	beqz	a5,a00031f0 <bench_sieve_run+0x140>
a00030fc:	00170713          	addi	a4,a4,1
a0003100:	40575793          	srai	a5,a4,0x5
a0003104:	00279793          	slli	a5,a5,0x2
a0003108:	00f687b3          	add	a5,a3,a5
a000310c:	fee450e3          	bge	s0,a4,a00030ec <bench_sieve_run+0x3c>
a0003110:	00300793          	li	a5,3
a0003114:	0e87d863          	bge	a5,s0,a0003204 <bench_sieve_run+0x154>
a0003118:	00062483          	lw	s1,0(a2)
a000311c:	00200593          	li	a1,2
a0003120:	00400613          	li	a2,4
a0003124:	00100313          	li	t1,1
a0003128:	02c0006f          	j	a0003154 <bench_sieve_run+0xa4>
a000312c:	00158593          	addi	a1,a1,1
a0003130:	00058513          	mv	a0,a1
a0003134:	00c12223          	sw	a2,4(sp)
a0003138:	00b12023          	sw	a1,0(sp)
a000313c:	379020ef          	jal	ra,a0005cb4 <__mulsi3>
a0003140:	00412603          	lw	a2,4(sp)
a0003144:	00012583          	lw	a1,0(sp)
a0003148:	00100313          	li	t1,1
a000314c:	00260613          	addi	a2,a2,2
a0003150:	04a44a63          	blt	s0,a0,a00031a4 <bench_sieve_run+0xf4>
a0003154:	4055d793          	srai	a5,a1,0x5
a0003158:	00279793          	slli	a5,a5,0x2
a000315c:	00f487b3          	add	a5,s1,a5
a0003160:	0007a783          	lw	a5,0(a5)
a0003164:	00b7d7b3          	srl	a5,a5,a1
a0003168:	0017f793          	andi	a5,a5,1
a000316c:	fc0780e3          	beqz	a5,a000312c <bench_sieve_run+0x7c>
a0003170:	00060713          	mv	a4,a2
a0003174:	fac44ce3          	blt	s0,a2,a000312c <bench_sieve_run+0x7c>
a0003178:	40575793          	srai	a5,a4,0x5
a000317c:	00279793          	slli	a5,a5,0x2
a0003180:	00f487b3          	add	a5,s1,a5
a0003184:	0007a683          	lw	a3,0(a5)
a0003188:	00e31533          	sll	a0,t1,a4
a000318c:	fff54513          	not	a0,a0
a0003190:	00a6f6b3          	and	a3,a3,a0
a0003194:	00d7a023          	sw	a3,0(a5)
a0003198:	00b70733          	add	a4,a4,a1
a000319c:	fce45ee3          	bge	s0,a4,a0003178 <bench_sieve_run+0xc8>
a00031a0:	f8dff06f          	j	a000312c <bench_sieve_run+0x7c>
a00031a4:	00005797          	auipc	a5,0x5
a00031a8:	fc07a223          	sw	zero,-60(a5) # a0008168 <ans>
a00031ac:	00000613          	li	a2,0
a00031b0:	00000693          	li	a3,0
a00031b4:	00200713          	li	a4,2
a00031b8:	40575793          	srai	a5,a4,0x5
a00031bc:	00279793          	slli	a5,a5,0x2
a00031c0:	00f487b3          	add	a5,s1,a5
a00031c4:	0007a783          	lw	a5,0(a5)
a00031c8:	00e7d7b3          	srl	a5,a5,a4
a00031cc:	0017f793          	andi	a5,a5,1
a00031d0:	00170713          	addi	a4,a4,1
a00031d4:	00078663          	beqz	a5,a00031e0 <bench_sieve_run+0x130>
a00031d8:	00168693          	addi	a3,a3,1
a00031dc:	00100613          	li	a2,1
a00031e0:	fce45ce3          	bge	s0,a4,a00031b8 <bench_sieve_run+0x108>
a00031e4:	00060663          	beqz	a2,a00031f0 <bench_sieve_run+0x140>
a00031e8:	00005797          	auipc	a5,0x5
a00031ec:	f8d7a023          	sw	a3,-128(a5) # a0008168 <ans>
a00031f0:	01012083          	lw	ra,16(sp)
a00031f4:	00c12403          	lw	s0,12(sp)
a00031f8:	00812483          	lw	s1,8(sp)
a00031fc:	01410113          	addi	sp,sp,20
a0003200:	00008067          	ret
a0003204:	00005797          	auipc	a5,0x5
a0003208:	f607a223          	sw	zero,-156(a5) # a0008168 <ans>
a000320c:	00100793          	li	a5,1
a0003210:	fe87d0e3          	bge	a5,s0,a00031f0 <bench_sieve_run+0x140>
a0003214:	00005497          	auipc	s1,0x5
a0003218:	f584a483          	lw	s1,-168(s1) # a000816c <primes>
a000321c:	f91ff06f          	j	a00031ac <bench_sieve_run+0xfc>

a0003220 <bench_sieve_validate>:
a0003220:	00005797          	auipc	a5,0x5
a0003224:	f807a783          	lw	a5,-128(a5) # a00081a0 <setting>
a0003228:	00c7a503          	lw	a0,12(a5)
a000322c:	00005797          	auipc	a5,0x5
a0003230:	f3c7a783          	lw	a5,-196(a5) # a0008168 <ans>
a0003234:	40f50533          	sub	a0,a0,a5
a0003238:	00153513          	seqz	a0,a0
a000323c:	00008067          	ret

a0003240 <_ZNK14Updatable_heapI8N_puzzleILi4EEE7pointerERKS1_.isra.0>:
a0003240:	00064303          	lbu	t1,0(a2)
a0003244:	00030c63          	beqz	t1,a000325c <_ZNK14Updatable_heapI8N_puzzleILi4EEE7pointerERKS1_.isra.0+0x1c>
a0003248:	01462783          	lw	a5,20(a2)
a000324c:	fff50513          	addi	a0,a0,-1
a0003250:	00f577b3          	and	a5,a0,a5
a0003254:	00279793          	slli	a5,a5,0x2
a0003258:	00f585b3          	add	a1,a1,a5
a000325c:	0005a503          	lw	a0,0(a1)
a0003260:	04050663          	beqz	a0,a00032ac <_ZNK14Updatable_heapI8N_puzzleILi4EEE7pointerERKS1_.isra.0+0x6c>
a0003264:	01800293          	li	t0,24
a0003268:	00054783          	lbu	a5,0(a0)
a000326c:	04078263          	beqz	a5,a00032b0 <_ZNK14Updatable_heapI8N_puzzleILi4EEE7pointerERKS1_.isra.0+0x70>
a0003270:	04030063          	beqz	t1,a00032b0 <_ZNK14Updatable_heapI8N_puzzleILi4EEE7pointerERKS1_.isra.0+0x70>
a0003274:	01452703          	lw	a4,20(a0)
a0003278:	01462783          	lw	a5,20(a2)
a000327c:	02f71a63          	bne	a4,a5,a00032b0 <_ZNK14Updatable_heapI8N_puzzleILi4EEE7pointerERKS1_.isra.0+0x70>
a0003280:	00800713          	li	a4,8
a0003284:	ffc70793          	addi	a5,a4,-4
a0003288:	00f505b3          	add	a1,a0,a5
a000328c:	00f606b3          	add	a3,a2,a5
a0003290:	00058583          	lb	a1,0(a1)
a0003294:	00068683          	lb	a3,0(a3)
a0003298:	00178793          	addi	a5,a5,1
a000329c:	00d59a63          	bne	a1,a3,a00032b0 <_ZNK14Updatable_heapI8N_puzzleILi4EEE7pointerERKS1_.isra.0+0x70>
a00032a0:	fef714e3          	bne	a4,a5,a0003288 <_ZNK14Updatable_heapI8N_puzzleILi4EEE7pointerERKS1_.isra.0+0x48>
a00032a4:	00470713          	addi	a4,a4,4
a00032a8:	fc571ee3          	bne	a4,t0,a0003284 <_ZNK14Updatable_heapI8N_puzzleILi4EEE7pointerERKS1_.isra.0+0x44>
a00032ac:	00008067          	ret
a00032b0:	01852503          	lw	a0,24(a0)
a00032b4:	fa051ae3          	bnez	a0,a0003268 <_ZNK14Updatable_heapI8N_puzzleILi4EEE7pointerERKS1_.isra.0+0x28>
a00032b8:	00008067          	ret

a00032bc <bench_15pz_prepare>:
a00032bc:	00008067          	ret

a00032c0 <bench_15pz_validate>:
a00032c0:	00005797          	auipc	a5,0x5
a00032c4:	ee07a783          	lw	a5,-288(a5) # a00081a0 <setting>
a00032c8:	00c7a503          	lw	a0,12(a5)
a00032cc:	00005797          	auipc	a5,0x5
a00032d0:	ea47a783          	lw	a5,-348(a5) # a0008170 <_ZL3ans>
a00032d4:	40f50533          	sub	a0,a0,a5
a00032d8:	00153513          	seqz	a0,a0
a00032dc:	00008067          	ret

a00032e0 <_ZN8N_puzzleILi4EEC1Ev>:
a00032e0:	fa010113          	addi	sp,sp,-96
a00032e4:	04812c23          	sw	s0,88(sp)
a00032e8:	04112e23          	sw	ra,92(sp)
a00032ec:	04912a23          	sw	s1,84(sp)
a00032f0:	00100793          	li	a5,1
a00032f4:	00f50023          	sb	a5,0(a0)
a00032f8:	00050413          	mv	s0,a0
a00032fc:	000501a3          	sb	zero,3(a0)
a0003300:	01410713          	addi	a4,sp,20
a0003304:	00000793          	li	a5,0
a0003308:	01000693          	li	a3,16
a000330c:	00f72023          	sw	a5,0(a4)
a0003310:	00178793          	addi	a5,a5,1
a0003314:	00470713          	addi	a4,a4,4
a0003318:	fed79ae3          	bne	a5,a3,a000330c <_ZN8N_puzzleILi4EEC1Ev+0x2c>
a000331c:	00012823          	sw	zero,16(sp)
a0003320:	00000693          	li	a3,0
a0003324:	00040313          	mv	t1,s0
a0003328:	01012783          	lw	a5,16(sp)
a000332c:	01410713          	addi	a4,sp,20
a0003330:	00000493          	li	s1,0
a0003334:	00279413          	slli	s0,a5,0x2
a0003338:	00e40433          	add	s0,s0,a4
a000333c:	01078713          	addi	a4,a5,16
a0003340:	40f307b3          	sub	a5,t1,a5
a0003344:	00e12623          	sw	a4,12(sp)
a0003348:	00f12423          	sw	a5,8(sp)
a000334c:	00612223          	sw	t1,4(sp)
a0003350:	00d12023          	sw	a3,0(sp)
a0003354:	771010ef          	jal	ra,a00052c4 <bench_rand>
a0003358:	00c12783          	lw	a5,12(sp)
a000335c:	409785b3          	sub	a1,a5,s1
a0003360:	0f1020ef          	jal	ra,a0005c50 <__umodsi3>
a0003364:	00251513          	slli	a0,a0,0x2
a0003368:	01410713          	addi	a4,sp,20
a000336c:	04050793          	addi	a5,a0,64
a0003370:	00e787b3          	add	a5,a5,a4
a0003374:	fc07a603          	lw	a2,-64(a5)
a0003378:	00812783          	lw	a5,8(sp)
a000337c:	00012683          	lw	a3,0(sp)
a0003380:	fff60393          	addi	t2,a2,-1
a0003384:	009785b3          	add	a1,a5,s1
a0003388:	41f3d793          	srai	a5,t2,0x1f
a000338c:	01e7d293          	srli	t0,a5,0x1e
a0003390:	00538733          	add	a4,t2,t0
a0003394:	0037f793          	andi	a5,a5,3
a0003398:	007787b3          	add	a5,a5,t2
a000339c:	00377713          	andi	a4,a4,3
a00033a0:	40570733          	sub	a4,a4,t0
a00033a4:	4027d793          	srai	a5,a5,0x2
a00033a8:	40970733          	sub	a4,a4,s1
a00033ac:	40d787b3          	sub	a5,a5,a3
a00033b0:	41f7d393          	srai	t2,a5,0x1f
a00033b4:	41f75293          	srai	t0,a4,0x1f
a00033b8:	00f3c7b3          	xor	a5,t2,a5
a00033bc:	00e2c733          	xor	a4,t0,a4
a00033c0:	407787b3          	sub	a5,a5,t2
a00033c4:	40570733          	sub	a4,a4,t0
a00033c8:	00c58223          	sb	a2,4(a1)
a00033cc:	00412303          	lw	t1,4(sp)
a00033d0:	00e78733          	add	a4,a5,a4
a00033d4:	0a061c63          	bnez	a2,a000348c <_ZN8N_puzzleILi4EEC1Ev+0x1ac>
a00033d8:	00d300a3          	sb	a3,1(t1)
a00033dc:	00930123          	sb	s1,2(t1)
a00033e0:	03c42783          	lw	a5,60(s0)
a00033e4:	04050713          	addi	a4,a0,64
a00033e8:	01410613          	addi	a2,sp,20
a00033ec:	00c70533          	add	a0,a4,a2
a00033f0:	fcf52023          	sw	a5,-64(a0)
a00033f4:	00148493          	addi	s1,s1,1
a00033f8:	00400793          	li	a5,4
a00033fc:	ffc40413          	addi	s0,s0,-4
a0003400:	f4f496e3          	bne	s1,a5,a000334c <_ZN8N_puzzleILi4EEC1Ev+0x6c>
a0003404:	01012783          	lw	a5,16(sp)
a0003408:	00168693          	addi	a3,a3,1
a000340c:	ffc78793          	addi	a5,a5,-4
a0003410:	00078713          	mv	a4,a5
a0003414:	00f12823          	sw	a5,16(sp)
a0003418:	ff000793          	li	a5,-16
a000341c:	f0f716e3          	bne	a4,a5,a0003328 <_ZN8N_puzzleILi4EEC1Ev+0x48>
a0003420:	00000793          	li	a5,0
a0003424:	00030413          	mv	s0,t1
a0003428:	00032a23          	sw	zero,20(t1)
a000342c:	00430613          	addi	a2,t1,4
a0003430:	01430593          	addi	a1,t1,20
a0003434:	00078693          	mv	a3,a5
a0003438:	ffc60713          	addi	a4,a2,-4
a000343c:	00569793          	slli	a5,a3,0x5
a0003440:	40d787b3          	sub	a5,a5,a3
a0003444:	00279793          	slli	a5,a5,0x2
a0003448:	40d787b3          	sub	a5,a5,a3
a000344c:	00279793          	slli	a5,a5,0x2
a0003450:	00470503          	lb	a0,4(a4)
a0003454:	00d787b3          	add	a5,a5,a3
a0003458:	00279793          	slli	a5,a5,0x2
a000345c:	00d787b3          	add	a5,a5,a3
a0003460:	00170713          	addi	a4,a4,1
a0003464:	00a786b3          	add	a3,a5,a0
a0003468:	fce61ae3          	bne	a2,a4,a000343c <_ZN8N_puzzleILi4EEC1Ev+0x15c>
a000346c:	00460613          	addi	a2,a2,4
a0003470:	fcc594e3          	bne	a1,a2,a0003438 <_ZN8N_puzzleILi4EEC1Ev+0x158>
a0003474:	05c12083          	lw	ra,92(sp)
a0003478:	00d42a23          	sw	a3,20(s0)
a000347c:	05812403          	lw	s0,88(sp)
a0003480:	05412483          	lw	s1,84(sp)
a0003484:	06010113          	addi	sp,sp,96
a0003488:	00008067          	ret
a000348c:	00334783          	lbu	a5,3(t1)
a0003490:	00f70733          	add	a4,a4,a5
a0003494:	00e301a3          	sb	a4,3(t1)
a0003498:	f49ff06f          	j	a00033e0 <_ZN8N_puzzleILi4EEC1Ev+0x100>

a000349c <_ZN8N_puzzleILi4EEC1EPi>:
a000349c:	fdc10113          	addi	sp,sp,-36
a00034a0:	00100793          	li	a5,1
a00034a4:	02812023          	sw	s0,32(sp)
a00034a8:	00c10413          	addi	s0,sp,12
a00034ac:	00f50023          	sb	a5,0(a0)
a00034b0:	00912e23          	sw	s1,28(sp)
a00034b4:	00b12223          	sw	a1,4(sp)
a00034b8:	000501a3          	sb	zero,3(a0)
a00034bc:	00040793          	mv	a5,s0
a00034c0:	00078023          	sb	zero,0(a5)
a00034c4:	01c10713          	addi	a4,sp,28
a00034c8:	00178793          	addi	a5,a5,1
a00034cc:	fee79ae3          	bne	a5,a4,a00034c0 <_ZN8N_puzzleILi4EEC1EPi+0x24>
a00034d0:	00812423          	sw	s0,8(sp)
a00034d4:	00000493          	li	s1,0
a00034d8:	00012023          	sw	zero,0(sp)
a00034dc:	00050413          	mv	s0,a0
a00034e0:	00012783          	lw	a5,0(sp)
a00034e4:	00000693          	li	a3,0
a00034e8:	00279313          	slli	t1,a5,0x2
a00034ec:	00412783          	lw	a5,4(sp)
a00034f0:	00678333          	add	t1,a5,t1
a00034f4:	00032603          	lw	a2,0(t1)
a00034f8:	00d405b3          	add	a1,s0,a3
a00034fc:	fff60393          	addi	t2,a2,-1
a0003500:	41f3d713          	srai	a4,t2,0x1f
a0003504:	01e75293          	srli	t0,a4,0x1e
a0003508:	005387b3          	add	a5,t2,t0
a000350c:	00377713          	andi	a4,a4,3
a0003510:	00770733          	add	a4,a4,t2
a0003514:	0037f793          	andi	a5,a5,3
a0003518:	405787b3          	sub	a5,a5,t0
a000351c:	40275713          	srai	a4,a4,0x2
a0003520:	40d787b3          	sub	a5,a5,a3
a0003524:	40970733          	sub	a4,a4,s1
a0003528:	41f75393          	srai	t2,a4,0x1f
a000352c:	41f7d293          	srai	t0,a5,0x1f
a0003530:	00e3c733          	xor	a4,t2,a4
a0003534:	00f2c7b3          	xor	a5,t0,a5
a0003538:	405787b3          	sub	a5,a5,t0
a000353c:	40770733          	sub	a4,a4,t2
a0003540:	01060293          	addi	t0,a2,16
a0003544:	00c10393          	addi	t2,sp,12
a0003548:	007282b3          	add	t0,t0,t2
a000354c:	00f70733          	add	a4,a4,a5
a0003550:	00100793          	li	a5,1
a0003554:	00c58223          	sb	a2,4(a1)
a0003558:	fef28823          	sb	a5,-16(t0)
a000355c:	0a061a63          	bnez	a2,a0003610 <_ZN8N_puzzleILi4EEC1EPi+0x174>
a0003560:	009500a3          	sb	s1,1(a0)
a0003564:	00d50123          	sb	a3,2(a0)
a0003568:	00168693          	addi	a3,a3,1
a000356c:	00400793          	li	a5,4
a0003570:	00430313          	addi	t1,t1,4
a0003574:	f8f690e3          	bne	a3,a5,a00034f4 <_ZN8N_puzzleILi4EEC1EPi+0x58>
a0003578:	00012783          	lw	a5,0(sp)
a000357c:	01000713          	li	a4,16
a0003580:	00148493          	addi	s1,s1,1
a0003584:	00478793          	addi	a5,a5,4
a0003588:	00f12023          	sw	a5,0(sp)
a000358c:	00440413          	addi	s0,s0,4
a0003590:	f4e798e3          	bne	a5,a4,a00034e0 <_ZN8N_puzzleILi4EEC1EPi+0x44>
a0003594:	00812403          	lw	s0,8(sp)
a0003598:	00044783          	lbu	a5,0(s0)
a000359c:	00140413          	addi	s0,s0,1
a00035a0:	08078063          	beqz	a5,a0003620 <_ZN8N_puzzleILi4EEC1EPi+0x184>
a00035a4:	01c10793          	addi	a5,sp,28
a00035a8:	fef418e3          	bne	s0,a5,a0003598 <_ZN8N_puzzleILi4EEC1EPi+0xfc>
a00035ac:	00000793          	li	a5,0
a00035b0:	00052a23          	sw	zero,20(a0)
a00035b4:	00450613          	addi	a2,a0,4
a00035b8:	01450593          	addi	a1,a0,20
a00035bc:	00078693          	mv	a3,a5
a00035c0:	ffc60713          	addi	a4,a2,-4
a00035c4:	00569793          	slli	a5,a3,0x5
a00035c8:	40d787b3          	sub	a5,a5,a3
a00035cc:	00279793          	slli	a5,a5,0x2
a00035d0:	40d787b3          	sub	a5,a5,a3
a00035d4:	00279793          	slli	a5,a5,0x2
a00035d8:	00470303          	lb	t1,4(a4)
a00035dc:	00d787b3          	add	a5,a5,a3
a00035e0:	00279793          	slli	a5,a5,0x2
a00035e4:	00d787b3          	add	a5,a5,a3
a00035e8:	00170713          	addi	a4,a4,1
a00035ec:	006786b3          	add	a3,a5,t1
a00035f0:	fcc71ae3          	bne	a4,a2,a00035c4 <_ZN8N_puzzleILi4EEC1EPi+0x128>
a00035f4:	00470613          	addi	a2,a4,4
a00035f8:	fcc594e3          	bne	a1,a2,a00035c0 <_ZN8N_puzzleILi4EEC1EPi+0x124>
a00035fc:	02012403          	lw	s0,32(sp)
a0003600:	00d52a23          	sw	a3,20(a0)
a0003604:	01c12483          	lw	s1,28(sp)
a0003608:	02410113          	addi	sp,sp,36
a000360c:	00008067          	ret
a0003610:	00354783          	lbu	a5,3(a0)
a0003614:	00f70733          	add	a4,a4,a5
a0003618:	00e501a3          	sb	a4,3(a0)
a000361c:	f4dff06f          	j	a0003568 <_ZN8N_puzzleILi4EEC1EPi+0xcc>
a0003620:	02012403          	lw	s0,32(sp)
a0003624:	00050023          	sb	zero,0(a0)
a0003628:	01c12483          	lw	s1,28(sp)
a000362c:	02410113          	addi	sp,sp,36
a0003630:	00008067          	ret

a0003634 <_ZNK8N_puzzleILi4EE8solvableEv>:
a0003634:	00050393          	mv	t2,a0
a0003638:	00054503          	lbu	a0,0(a0)
a000363c:	0c050263          	beqz	a0,a0003700 <_ZNK8N_puzzleILi4EE8solvableEv+0xcc>
a0003640:	fc010113          	addi	sp,sp,-64
a0003644:	00438613          	addi	a2,t2,4
a0003648:	00010593          	mv	a1,sp
a000364c:	01438513          	addi	a0,t2,20
a0003650:	ffc60793          	addi	a5,a2,-4
a0003654:	00058693          	mv	a3,a1
a0003658:	00478703          	lb	a4,4(a5)
a000365c:	00178793          	addi	a5,a5,1
a0003660:	00071463          	bnez	a4,a0003668 <_ZNK8N_puzzleILi4EE8solvableEv+0x34>
a0003664:	01000713          	li	a4,16
a0003668:	00e6a023          	sw	a4,0(a3)
a000366c:	00468693          	addi	a3,a3,4
a0003670:	fec794e3          	bne	a5,a2,a0003658 <_ZNK8N_puzzleILi4EE8solvableEv+0x24>
a0003674:	00478613          	addi	a2,a5,4
a0003678:	01058593          	addi	a1,a1,16
a000367c:	fca61ae3          	bne	a2,a0,a0003650 <_ZNK8N_puzzleILi4EE8solvableEv+0x1c>
a0003680:	00100293          	li	t0,1
a0003684:	00100793          	li	a5,1
a0003688:	00000613          	li	a2,0
a000368c:	00000593          	li	a1,0
a0003690:	01000313          	li	t1,16
a0003694:	00279693          	slli	a3,a5,0x2
a0003698:	04068713          	addi	a4,a3,64
a000369c:	002706b3          	add	a3,a4,sp
a00036a0:	04058713          	addi	a4,a1,64
a00036a4:	00270733          	add	a4,a4,sp
a00036a8:	fc072703          	lw	a4,-64(a4)
a00036ac:	fc06a683          	lw	a3,-64(a3)
a00036b0:	00178793          	addi	a5,a5,1
a00036b4:	00e6a733          	slt	a4,a3,a4
a00036b8:	00e60633          	add	a2,a2,a4
a00036bc:	fc679ce3          	bne	a5,t1,a0003694 <_ZNK8N_puzzleILi4EE8solvableEv+0x60>
a00036c0:	00128793          	addi	a5,t0,1
a00036c4:	00028593          	mv	a1,t0
a00036c8:	00678863          	beq	a5,t1,a00036d8 <_ZNK8N_puzzleILi4EE8solvableEv+0xa4>
a00036cc:	00078293          	mv	t0,a5
a00036d0:	00259593          	slli	a1,a1,0x2
a00036d4:	fc1ff06f          	j	a0003694 <_ZNK8N_puzzleILi4EE8solvableEv+0x60>
a00036d8:	0013c703          	lbu	a4,1(t2)
a00036dc:	0023c783          	lbu	a5,2(t2)
a00036e0:	00600513          	li	a0,6
a00036e4:	40e50533          	sub	a0,a0,a4
a00036e8:	40f50533          	sub	a0,a0,a5
a00036ec:	00c50533          	add	a0,a0,a2
a00036f0:	fff54513          	not	a0,a0
a00036f4:	00157513          	andi	a0,a0,1
a00036f8:	04010113          	addi	sp,sp,64
a00036fc:	00008067          	ret
a0003700:	00008067          	ret

a0003704 <_ZN14Updatable_heapI8N_puzzleILi4EEE12percolate_upEi>:
a0003704:	00100793          	li	a5,1
a0003708:	06f58c63          	beq	a1,a5,a0003780 <_ZN14Updatable_heapI8N_puzzleILi4EEE12percolate_upEi+0x7c>
a000370c:	00852683          	lw	a3,8(a0)
a0003710:	00259793          	slli	a5,a1,0x2
a0003714:	ffc10113          	addi	sp,sp,-4
a0003718:	00f687b3          	add	a5,a3,a5
a000371c:	0007a603          	lw	a2,0(a5)
a0003720:	00812023          	sw	s0,0(sp)
a0003724:	00100313          	li	t1,1
a0003728:	02462503          	lw	a0,36(a2)
a000372c:	01c0006f          	j	a0003748 <_ZN14Updatable_heapI8N_puzzleILi4EEE12percolate_upEi+0x44>
a0003730:	00772023          	sw	t2,0(a4)
a0003734:	00c7a023          	sw	a2,0(a5)
a0003738:	00072783          	lw	a5,0(a4)
a000373c:	00b62e23          	sw	a1,28(a2)
a0003740:	0057ae23          	sw	t0,28(a5)
a0003744:	02658863          	beq	a1,t1,a0003774 <_ZN14Updatable_heapI8N_puzzleILi4EEE12percolate_upEi+0x70>
a0003748:	01f5d793          	srli	a5,a1,0x1f
a000374c:	00b787b3          	add	a5,a5,a1
a0003750:	00058293          	mv	t0,a1
a0003754:	4017d593          	srai	a1,a5,0x1
a0003758:	00259793          	slli	a5,a1,0x2
a000375c:	00f687b3          	add	a5,a3,a5
a0003760:	0007a383          	lw	t2,0(a5)
a0003764:	00229713          	slli	a4,t0,0x2
a0003768:	00e68733          	add	a4,a3,a4
a000376c:	0243a403          	lw	s0,36(t2)
a0003770:	fc8540e3          	blt	a0,s0,a0003730 <_ZN14Updatable_heapI8N_puzzleILi4EEE12percolate_upEi+0x2c>
a0003774:	00012403          	lw	s0,0(sp)
a0003778:	00410113          	addi	sp,sp,4
a000377c:	00008067          	ret
a0003780:	00008067          	ret

a0003784 <_ZN14Updatable_heapI8N_puzzleILi4EEE4pushERKS1_i>:
a0003784:	00052783          	lw	a5,0(a0)
a0003788:	00058693          	mv	a3,a1
a000378c:	00452583          	lw	a1,4(a0)
a0003790:	fec10113          	addi	sp,sp,-20
a0003794:	00812623          	sw	s0,12(sp)
a0003798:	00912423          	sw	s1,8(sp)
a000379c:	00060413          	mv	s0,a2
a00037a0:	00050493          	mv	s1,a0
a00037a4:	00068613          	mv	a2,a3
a00037a8:	00078513          	mv	a0,a5
a00037ac:	00f12223          	sw	a5,4(sp)
a00037b0:	00d12023          	sw	a3,0(sp)
a00037b4:	00112823          	sw	ra,16(sp)
a00037b8:	a89ff0ef          	jal	ra,a0003240 <_ZNK14Updatable_heapI8N_puzzleILi4EEE7pointerERKS1_.isra.0>
a00037bc:	00012683          	lw	a3,0(sp)
a00037c0:	00412783          	lw	a5,4(sp)
a00037c4:	02050e63          	beqz	a0,a0003800 <_ZN14Updatable_heapI8N_puzzleILi4EEE4pushERKS1_i+0x7c>
a00037c8:	02854783          	lbu	a5,40(a0)
a00037cc:	02079063          	bnez	a5,a00037ec <_ZN14Updatable_heapI8N_puzzleILi4EEE4pushERKS1_i+0x68>
a00037d0:	00054703          	lbu	a4,0(a0)
a00037d4:	04000793          	li	a5,64
a00037d8:	00070463          	beqz	a4,a00037e0 <_ZN14Updatable_heapI8N_puzzleILi4EEE4pushERKS1_i+0x5c>
a00037dc:	00350783          	lb	a5,3(a0)
a00037e0:	02452703          	lw	a4,36(a0)
a00037e4:	00f407b3          	add	a5,s0,a5
a00037e8:	14e7c863          	blt	a5,a4,a0003938 <_ZN14Updatable_heapI8N_puzzleILi4EEE4pushERKS1_i+0x1b4>
a00037ec:	01012083          	lw	ra,16(sp)
a00037f0:	00c12403          	lw	s0,12(sp)
a00037f4:	00812483          	lw	s1,8(sp)
a00037f8:	01410113          	addi	sp,sp,20
a00037fc:	00008067          	ret
a0003800:	00c4a703          	lw	a4,12(s1)
a0003804:	16e7c463          	blt	a5,a4,a000396c <_ZN14Updatable_heapI8N_puzzleILi4EEE4pushERKS1_i+0x1e8>
a0003808:	00170713          	addi	a4,a4,1
a000380c:	00e4a623          	sw	a4,12(s1)
a0003810:	03000513          	li	a0,48
a0003814:	00d12023          	sw	a3,0(sp)
a0003818:	1f1010ef          	jal	ra,a0005208 <bench_alloc>
a000381c:	00012683          	lw	a3,0(sp)
a0003820:	0044a283          	lw	t0,4(s1)
a0003824:	00000713          	li	a4,0
a0003828:	0006c383          	lbu	t2,0(a3)
a000382c:	0146a603          	lw	a2,20(a3)
a0003830:	10039063          	bnez	t2,a0003930 <_ZN14Updatable_heapI8N_puzzleILi4EEE4pushERKS1_i+0x1ac>
a0003834:	0004a303          	lw	t1,0(s1)
a0003838:	00c4a583          	lw	a1,12(s1)
a000383c:	00468793          	addi	a5,a3,4
a0003840:	fff30313          	addi	t1,t1,-1
a0003844:	00e37733          	and	a4,t1,a4
a0003848:	00271713          	slli	a4,a4,0x2
a000384c:	00e28733          	add	a4,t0,a4
a0003850:	00072703          	lw	a4,0(a4)
a0003854:	00750023          	sb	t2,0(a0)
a0003858:	0016c083          	lbu	ra,1(a3)
a000385c:	00612223          	sw	t1,4(sp)
a0003860:	00e12023          	sw	a4,0(sp)
a0003864:	001500a3          	sb	ra,1(a0)
a0003868:	0026c083          	lbu	ra,2(a3)
a000386c:	00450713          	addi	a4,a0,4
a0003870:	01468313          	addi	t1,a3,20
a0003874:	00150123          	sb	ra,2(a0)
a0003878:	00368083          	lb	ra,3(a3)
a000387c:	00c52a23          	sw	a2,20(a0)
a0003880:	001501a3          	sb	ra,3(a0)
a0003884:	00078603          	lb	a2,0(a5)
a0003888:	00478793          	addi	a5,a5,4
a000388c:	00470713          	addi	a4,a4,4
a0003890:	fec70e23          	sb	a2,-4(a4)
a0003894:	ffd78603          	lb	a2,-3(a5)
a0003898:	fec70ea3          	sb	a2,-3(a4)
a000389c:	ffe78603          	lb	a2,-2(a5)
a00038a0:	fec70f23          	sb	a2,-2(a4)
a00038a4:	fff78603          	lb	a2,-1(a5)
a00038a8:	fec70fa3          	sb	a2,-1(a4)
a00038ac:	fc679ce3          	bne	a5,t1,a0003884 <_ZN14Updatable_heapI8N_puzzleILi4EEE4pushERKS1_i+0x100>
a00038b0:	00012783          	lw	a5,0(sp)
a00038b4:	00b52e23          	sw	a1,28(a0)
a00038b8:	02852023          	sw	s0,32(a0)
a00038bc:	00f52c23          	sw	a5,24(a0)
a00038c0:	08038c63          	beqz	t2,a0003958 <_ZN14Updatable_heapI8N_puzzleILi4EEE4pushERKS1_i+0x1d4>
a00038c4:	0146a783          	lw	a5,20(a3)
a00038c8:	00412703          	lw	a4,4(sp)
a00038cc:	008080b3          	add	ra,ra,s0
a00038d0:	02152223          	sw	ra,36(a0)
a00038d4:	00f777b3          	and	a5,a4,a5
a00038d8:	00279793          	slli	a5,a5,0x2
a00038dc:	02050423          	sb	zero,40(a0)
a00038e0:	02052623          	sw	zero,44(a0)
a00038e4:	00f282b3          	add	t0,t0,a5
a00038e8:	0084a783          	lw	a5,8(s1)
a00038ec:	00259713          	slli	a4,a1,0x2
a00038f0:	00a2a023          	sw	a0,0(t0)
a00038f4:	00e787b3          	add	a5,a5,a4
a00038f8:	00a7a023          	sw	a0,0(a5)
a00038fc:	00048513          	mv	a0,s1
a0003900:	00b12023          	sw	a1,0(sp)
a0003904:	e01ff0ef          	jal	ra,a0003704 <_ZN14Updatable_heapI8N_puzzleILi4EEE12percolate_upEi>
a0003908:	0104a783          	lw	a5,16(s1)
a000390c:	00012583          	lw	a1,0(sp)
a0003910:	00b7d463          	bge	a5,a1,a0003918 <_ZN14Updatable_heapI8N_puzzleILi4EEE4pushERKS1_i+0x194>
a0003914:	00058793          	mv	a5,a1
a0003918:	01012083          	lw	ra,16(sp)
a000391c:	00c12403          	lw	s0,12(sp)
a0003920:	00f4a823          	sw	a5,16(s1)
a0003924:	00812483          	lw	s1,8(sp)
a0003928:	01410113          	addi	sp,sp,20
a000392c:	00008067          	ret
a0003930:	00060713          	mv	a4,a2
a0003934:	f01ff06f          	j	a0003834 <_ZN14Updatable_heapI8N_puzzleILi4EEE4pushERKS1_i+0xb0>
a0003938:	00c12403          	lw	s0,12(sp)
a000393c:	01c52583          	lw	a1,28(a0)
a0003940:	01012083          	lw	ra,16(sp)
a0003944:	02f52223          	sw	a5,36(a0)
a0003948:	00048513          	mv	a0,s1
a000394c:	00812483          	lw	s1,8(sp)
a0003950:	01410113          	addi	sp,sp,20
a0003954:	db1ff06f          	j	a0003704 <_ZN14Updatable_heapI8N_puzzleILi4EEE12percolate_upEi>
a0003958:	04040413          	addi	s0,s0,64
a000395c:	02852223          	sw	s0,36(a0)
a0003960:	02050423          	sb	zero,40(a0)
a0003964:	02052623          	sw	zero,44(a0)
a0003968:	f81ff06f          	j	a00038e8 <_ZN14Updatable_heapI8N_puzzleILi4EEE4pushERKS1_i+0x164>
a000396c:	09800613          	li	a2,152
a0003970:	00003597          	auipc	a1,0x3
a0003974:	70858593          	addi	a1,a1,1800 # a0007078 <r+0x100>
a0003978:	00003517          	auipc	a0,0x3
a000397c:	4e450513          	addi	a0,a0,1252 # a0006e5c <_etext+0x54>
a0003980:	298030ef          	jal	ra,a0006c18 <printf>
a0003984:	00100513          	li	a0,1
a0003988:	445010ef          	jal	ra,a00055cc <halt>

a000398c <_ZN14Updatable_heapI8N_puzzleILi4EEE14percolate_downEv>:
a000398c:	00c52783          	lw	a5,12(a0)
a0003990:	ff010113          	addi	sp,sp,-16
a0003994:	00812623          	sw	s0,12(sp)
a0003998:	00078693          	mv	a3,a5
a000399c:	00f12023          	sw	a5,0(sp)
a00039a0:	00912423          	sw	s1,8(sp)
a00039a4:	00a12223          	sw	a0,4(sp)
a00039a8:	00200793          	li	a5,2
a00039ac:	10d7de63          	bge	a5,a3,a0003ac8 <_ZN14Updatable_heapI8N_puzzleILi4EEE14percolate_downEv+0x13c>
a00039b0:	00852583          	lw	a1,8(a0)
a00039b4:	00100693          	li	a3,1
a00039b8:	00200713          	li	a4,2
a00039bc:	0300006f          	j	a00039ec <_ZN14Updatable_heapI8N_puzzleILi4EEE14percolate_downEv+0x60>
a00039c0:	0aa4c263          	blt	s1,a0,a0003a64 <_ZN14Updatable_heapI8N_puzzleILi4EEE14percolate_downEv+0xd8>
a00039c4:	00062783          	lw	a5,0(a2)
a00039c8:	00762023          	sw	t2,0(a2)
a00039cc:	00f32023          	sw	a5,0(t1)
a00039d0:	00062703          	lw	a4,0(a2)
a00039d4:	00d7ae23          	sw	a3,28(a5)
a00039d8:	00012783          	lw	a5,0(sp)
a00039dc:	00028693          	mv	a3,t0
a00039e0:	00572e23          	sw	t0,28(a4)
a00039e4:	00169713          	slli	a4,a3,0x1
a00039e8:	06f75a63          	bge	a4,a5,a0003a5c <_ZN14Updatable_heapI8N_puzzleILi4EEE14percolate_downEv+0xd0>
a00039ec:	00269513          	slli	a0,a3,0x2
a00039f0:	00a58333          	add	t1,a1,a0
a00039f4:	00a30533          	add	a0,t1,a0
a00039f8:	00052403          	lw	s0,0(a0)
a00039fc:	00032383          	lw	t2,0(t1)
a0003a00:	00369513          	slli	a0,a3,0x3
a0003a04:	00a58533          	add	a0,a1,a0
a0003a08:	00452503          	lw	a0,4(a0)
a0003a0c:	0243a483          	lw	s1,36(t2)
a0003a10:	02442403          	lw	s0,36(s0)
a0003a14:	00170293          	addi	t0,a4,1
a0003a18:	00271793          	slli	a5,a4,0x2
a0003a1c:	00229613          	slli	a2,t0,0x2
a0003a20:	02452503          	lw	a0,36(a0)
a0003a24:	00f587b3          	add	a5,a1,a5
a0003a28:	00c58633          	add	a2,a1,a2
a0003a2c:	f884cae3          	blt	s1,s0,a00039c0 <_ZN14Updatable_heapI8N_puzzleILi4EEE14percolate_downEv+0x34>
a0003a30:	f8a45ae3          	bge	s0,a0,a00039c4 <_ZN14Updatable_heapI8N_puzzleILi4EEE14percolate_downEv+0x38>
a0003a34:	0007a603          	lw	a2,0(a5)
a0003a38:	0077a023          	sw	t2,0(a5)
a0003a3c:	00c32023          	sw	a2,0(t1)
a0003a40:	0007a783          	lw	a5,0(a5)
a0003a44:	00d62e23          	sw	a3,28(a2)
a0003a48:	00070693          	mv	a3,a4
a0003a4c:	00e7ae23          	sw	a4,28(a5)
a0003a50:	00012783          	lw	a5,0(sp)
a0003a54:	00169713          	slli	a4,a3,0x1
a0003a58:	f8f74ae3          	blt	a4,a5,a00039ec <_ZN14Updatable_heapI8N_puzzleILi4EEE14percolate_downEv+0x60>
a0003a5c:	00012783          	lw	a5,0(sp)
a0003a60:	00e78a63          	beq	a5,a4,a0003a74 <_ZN14Updatable_heapI8N_puzzleILi4EEE14percolate_downEv+0xe8>
a0003a64:	00c12403          	lw	s0,12(sp)
a0003a68:	00812483          	lw	s1,8(sp)
a0003a6c:	01010113          	addi	sp,sp,16
a0003a70:	00008067          	ret
a0003a74:	00412783          	lw	a5,4(sp)
a0003a78:	00369713          	slli	a4,a3,0x3
a0003a7c:	0087a603          	lw	a2,8(a5)
a0003a80:	00269793          	slli	a5,a3,0x2
a0003a84:	00e60733          	add	a4,a2,a4
a0003a88:	00f607b3          	add	a5,a2,a5
a0003a8c:	00072503          	lw	a0,0(a4)
a0003a90:	0007a583          	lw	a1,0(a5)
a0003a94:	02452503          	lw	a0,36(a0)
a0003a98:	0245a703          	lw	a4,36(a1)
a0003a9c:	fce554e3          	bge	a0,a4,a0003a64 <_ZN14Updatable_heapI8N_puzzleILi4EEE14percolate_downEv+0xd8>
a0003aa0:	00012503          	lw	a0,0(sp)
a0003aa4:	00251713          	slli	a4,a0,0x2
a0003aa8:	00e60733          	add	a4,a2,a4
a0003aac:	00072603          	lw	a2,0(a4)
a0003ab0:	00b72023          	sw	a1,0(a4)
a0003ab4:	00c7a023          	sw	a2,0(a5)
a0003ab8:	00072783          	lw	a5,0(a4)
a0003abc:	00d62e23          	sw	a3,28(a2)
a0003ac0:	00a7ae23          	sw	a0,28(a5)
a0003ac4:	fa1ff06f          	j	a0003a64 <_ZN14Updatable_heapI8N_puzzleILi4EEE14percolate_downEv+0xd8>
a0003ac8:	00100693          	li	a3,1
a0003acc:	00200713          	li	a4,2
a0003ad0:	f8dff06f          	j	a0003a5c <_ZN14Updatable_heapI8N_puzzleILi4EEE14percolate_downEv+0xd0>

a0003ad4 <bench_15pz_run>:
a0003ad4:	f4410113          	addi	sp,sp,-188
a0003ad8:	02810513          	addi	a0,sp,40
a0003adc:	0a112c23          	sw	ra,184(sp)
a0003ae0:	0a812a23          	sw	s0,180(sp)
a0003ae4:	0a912823          	sw	s1,176(sp)
a0003ae8:	ff8ff0ef          	jal	ra,a00032e0 <_ZN8N_puzzleILi4EEC1Ev>
a0003aec:	00004797          	auipc	a5,0x4
a0003af0:	6b47a783          	lw	a5,1716(a5) # a00081a0 <setting>
a0003af4:	0007a783          	lw	a5,0(a5)
a0003af8:	00200713          	li	a4,2
a0003afc:	2ce782e3          	beq	a5,a4,a00045c0 <bench_15pz_run+0xaec>
a0003b00:	08f74063          	blt	a4,a5,a0003b80 <bench_15pz_run+0xac>
a0003b04:	240788e3          	beqz	a5,a0004554 <bench_15pz_run+0xa80>
a0003b08:	00100713          	li	a4,1
a0003b0c:	36e790e3          	bne	a5,a4,a000466c <bench_15pz_run+0xb98>
a0003b10:	07010413          	addi	s0,sp,112
a0003b14:	00004597          	auipc	a1,0x4
a0003b18:	00858593          	addi	a1,a1,8 # a0007b1c <_ZL8PUZZLE_M>
a0003b1c:	00040513          	mv	a0,s0
a0003b20:	97dff0ef          	jal	ra,a000349c <_ZN8N_puzzleILi4EEC1EPi>
a0003b24:	07012703          	lw	a4,112(sp)
a0003b28:	08010313          	addi	t1,sp,128
a0003b2c:	00040793          	mv	a5,s0
a0003b30:	02e12423          	sw	a4,40(sp)
a0003b34:	08412703          	lw	a4,132(sp)
a0003b38:	00612223          	sw	t1,4(sp)
a0003b3c:	02e12e23          	sw	a4,60(sp)
a0003b40:	02810713          	addi	a4,sp,40
a0003b44:	0047c503          	lbu	a0,4(a5)
a0003b48:	0057c583          	lbu	a1,5(a5)
a0003b4c:	0067c603          	lbu	a2,6(a5)
a0003b50:	0077c683          	lbu	a3,7(a5)
a0003b54:	00a70223          	sb	a0,4(a4)
a0003b58:	00b702a3          	sb	a1,5(a4)
a0003b5c:	00c70323          	sb	a2,6(a4)
a0003b60:	00d703a3          	sb	a3,7(a4)
a0003b64:	00478793          	addi	a5,a5,4
a0003b68:	00470713          	addi	a4,a4,4
a0003b6c:	fc679ce3          	bne	a5,t1,a0003b44 <bench_15pz_run+0x70>
a0003b70:	000017b7          	lui	a5,0x1
a0003b74:	80078793          	addi	a5,a5,-2048 # 800 <_data_size+0x1ac>
a0003b78:	00f12c23          	sw	a5,24(sp)
a0003b7c:	0740006f          	j	a0003bf0 <bench_15pz_run+0x11c>
a0003b80:	00300713          	li	a4,3
a0003b84:	2ee794e3          	bne	a5,a4,a000466c <bench_15pz_run+0xb98>
a0003b88:	07010413          	addi	s0,sp,112
a0003b8c:	00004597          	auipc	a1,0x4
a0003b90:	f1058593          	addi	a1,a1,-240 # a0007a9c <_ZL8PUZZLE_H>
a0003b94:	00040513          	mv	a0,s0
a0003b98:	905ff0ef          	jal	ra,a000349c <_ZN8N_puzzleILi4EEC1EPi>
a0003b9c:	07012703          	lw	a4,112(sp)
a0003ba0:	08010313          	addi	t1,sp,128
a0003ba4:	00040793          	mv	a5,s0
a0003ba8:	02e12423          	sw	a4,40(sp)
a0003bac:	08412703          	lw	a4,132(sp)
a0003bb0:	00612223          	sw	t1,4(sp)
a0003bb4:	02e12e23          	sw	a4,60(sp)
a0003bb8:	02810713          	addi	a4,sp,40
a0003bbc:	0047c503          	lbu	a0,4(a5)
a0003bc0:	0057c583          	lbu	a1,5(a5)
a0003bc4:	0067c603          	lbu	a2,6(a5)
a0003bc8:	0077c683          	lbu	a3,7(a5)
a0003bcc:	00a70223          	sb	a0,4(a4)
a0003bd0:	00b702a3          	sb	a1,5(a4)
a0003bd4:	00c70323          	sb	a2,6(a4)
a0003bd8:	00d703a3          	sb	a3,7(a4)
a0003bdc:	00478793          	addi	a5,a5,4
a0003be0:	00470713          	addi	a4,a4,4
a0003be4:	fcf31ce3          	bne	t1,a5,a0003bbc <bench_15pz_run+0xe8>
a0003be8:	000c07b7          	lui	a5,0xc0
a0003bec:	00f12c23          	sw	a5,24(sp)
a0003bf0:	02810513          	addi	a0,sp,40
a0003bf4:	a41ff0ef          	jal	ra,a0003634 <_ZNK8N_puzzleILi4EE8solvableEv>
a0003bf8:	22050ae3          	beqz	a0,a000462c <bench_15pz_run+0xb58>
a0003bfc:	01400513          	li	a0,20
a0003c00:	608010ef          	jal	ra,a0005208 <bench_alloc>
a0003c04:	01812783          	lw	a5,24(sp)
a0003c08:	00050493          	mv	s1,a0
a0003c0c:	00f52023          	sw	a5,0(a0)
a0003c10:	00279513          	slli	a0,a5,0x2
a0003c14:	5f4010ef          	jal	ra,a0005208 <bench_alloc>
a0003c18:	0004a783          	lw	a5,0(s1)
a0003c1c:	00a4a423          	sw	a0,8(s1)
a0003c20:	00178793          	addi	a5,a5,1 # c0001 <_text_size+0xb91f9>
a0003c24:	00279513          	slli	a0,a5,0x2
a0003c28:	5e0010ef          	jal	ra,a0005208 <bench_alloc>
a0003c2c:	0004a683          	lw	a3,0(s1)
a0003c30:	00a4a223          	sw	a0,4(s1)
a0003c34:	0004a623          	sw	zero,12(s1)
a0003c38:	00269713          	slli	a4,a3,0x2
a0003c3c:	0004a823          	sw	zero,16(s1)
a0003c40:	00050793          	mv	a5,a0
a0003c44:	00e50733          	add	a4,a0,a4
a0003c48:	00d05863          	blez	a3,a0003c58 <bench_15pz_run+0x184>
a0003c4c:	0007a023          	sw	zero,0(a5)
a0003c50:	00478793          	addi	a5,a5,4
a0003c54:	fee79ce3          	bne	a5,a4,a0003c4c <bench_15pz_run+0x178>
a0003c58:	00000613          	li	a2,0
a0003c5c:	02810593          	addi	a1,sp,40
a0003c60:	00048513          	mv	a0,s1
a0003c64:	b21ff0ef          	jal	ra,a0003784 <_ZN14Updatable_heapI8N_puzzleILi4EEE4pushERKS1_i>
a0003c68:	00c4a603          	lw	a2,12(s1)
a0003c6c:	fff00793          	li	a5,-1
a0003c70:	00004717          	auipc	a4,0x4
a0003c74:	50070713          	addi	a4,a4,1280 # a0008170 <_ZL3ans>
a0003c78:	00f72023          	sw	a5,0(a4)
a0003c7c:	00012023          	sw	zero,0(sp)
a0003c80:	1c060263          	beqz	a2,a0003e44 <bench_15pz_run+0x370>
a0003c84:	0084a283          	lw	t0,8(s1)
a0003c88:	00040713          	mv	a4,s0
a0003c8c:	00040693          	mv	a3,s0
a0003c90:	0042a783          	lw	a5,4(t0)
a0003c94:	0007c583          	lbu	a1,0(a5)
a0003c98:	0007a303          	lw	t1,0(a5)
a0003c9c:	00478793          	addi	a5,a5,4
a0003ca0:	00b12823          	sw	a1,16(sp)
a0003ca4:	ffd7c583          	lbu	a1,-3(a5)
a0003ca8:	00b12623          	sw	a1,12(sp)
a0003cac:	ffe7c583          	lbu	a1,-2(a5)
a0003cb0:	00b12423          	sw	a1,8(sp)
a0003cb4:	fff78583          	lb	a1,-1(a5)
a0003cb8:	00b12e23          	sw	a1,28(sp)
a0003cbc:	0107a583          	lw	a1,16(a5)
a0003cc0:	00b12a23          	sw	a1,20(sp)
a0003cc4:	0037c583          	lbu	a1,3(a5)
a0003cc8:	0007c083          	lbu	ra,0(a5)
a0003ccc:	0017c383          	lbu	t2,1(a5)
a0003cd0:	0027c503          	lbu	a0,2(a5)
a0003cd4:	00b683a3          	sb	a1,7(a3)
a0003cd8:	00412583          	lw	a1,4(sp)
a0003cdc:	00168223          	sb	ra,4(a3)
a0003ce0:	007682a3          	sb	t2,5(a3)
a0003ce4:	00a68323          	sb	a0,6(a3)
a0003ce8:	00468693          	addi	a3,a3,4
a0003cec:	00478793          	addi	a5,a5,4
a0003cf0:	fcb69ae3          	bne	a3,a1,a0003cc4 <bench_15pz_run+0x1f0>
a0003cf4:	00100793          	li	a5,1
a0003cf8:	02f60ae3          	beq	a2,a5,a000452c <bench_15pz_run+0xa58>
a0003cfc:	14c7d8e3          	bge	a5,a2,a000464c <bench_15pz_run+0xb78>
a0003d00:	00261693          	slli	a3,a2,0x2
a0003d04:	00d286b3          	add	a3,t0,a3
a0003d08:	0006a683          	lw	a3,0(a3)
a0003d0c:	fff60613          	addi	a2,a2,-1
a0003d10:	00048513          	mv	a0,s1
a0003d14:	00d2a223          	sw	a3,4(t0)
a0003d18:	00f6ae23          	sw	a5,28(a3)
a0003d1c:	00c4a623          	sw	a2,12(s1)
a0003d20:	02612223          	sw	t1,36(sp)
a0003d24:	02e12023          	sw	a4,32(sp)
a0003d28:	c65ff0ef          	jal	ra,a000398c <_ZN14Updatable_heapI8N_puzzleILi4EEE14percolate_downEv>
a0003d2c:	02412303          	lw	t1,36(sp)
a0003d30:	02012703          	lw	a4,32(sp)
a0003d34:	01412783          	lw	a5,20(sp)
a0003d38:	04612023          	sw	t1,64(sp)
a0003d3c:	00412303          	lw	t1,4(sp)
a0003d40:	04f12a23          	sw	a5,84(sp)
a0003d44:	04010793          	addi	a5,sp,64
a0003d48:	02f12023          	sw	a5,32(sp)
a0003d4c:	00474503          	lbu	a0,4(a4)
a0003d50:	00574583          	lbu	a1,5(a4)
a0003d54:	00674603          	lbu	a2,6(a4)
a0003d58:	00774683          	lbu	a3,7(a4)
a0003d5c:	00a78223          	sb	a0,4(a5)
a0003d60:	00b782a3          	sb	a1,5(a5)
a0003d64:	00c78323          	sb	a2,6(a5)
a0003d68:	00d783a3          	sb	a3,7(a5)
a0003d6c:	00470713          	addi	a4,a4,4
a0003d70:	00478793          	addi	a5,a5,4
a0003d74:	fc671ce3          	bne	a4,t1,a0003d4c <bench_15pz_run+0x278>
a0003d78:	00012783          	lw	a5,0(sp)
a0003d7c:	00040713          	mv	a4,s0
a0003d80:	00f00693          	li	a3,15
a0003d84:	00178793          	addi	a5,a5,1
a0003d88:	00f12023          	sw	a5,0(sp)
a0003d8c:	00000793          	li	a5,0
a0003d90:	00178793          	addi	a5,a5,1
a0003d94:	00f72023          	sw	a5,0(a4)
a0003d98:	00470713          	addi	a4,a4,4
a0003d9c:	fed79ae3          	bne	a5,a3,a0003d90 <bench_15pz_run+0x2bc>
a0003da0:	00040593          	mv	a1,s0
a0003da4:	05810513          	addi	a0,sp,88
a0003da8:	0a012623          	sw	zero,172(sp)
a0003dac:	ef0ff0ef          	jal	ra,a000349c <_ZN8N_puzzleILi4EEC1EPi>
a0003db0:	01012783          	lw	a5,16(sp)
a0003db4:	0c078663          	beqz	a5,a0003e80 <bench_15pz_run+0x3ac>
a0003db8:	05814783          	lbu	a5,88(sp)
a0003dbc:	0e078663          	beqz	a5,a0003ea8 <bench_15pz_run+0x3d4>
a0003dc0:	06c12783          	lw	a5,108(sp)
a0003dc4:	01412703          	lw	a4,20(sp)
a0003dc8:	0ee79063          	bne	a5,a4,a0003ea8 <bench_15pz_run+0x3d4>
a0003dcc:	04010793          	addi	a5,sp,64
a0003dd0:	05010313          	addi	t1,sp,80
a0003dd4:	05810593          	addi	a1,sp,88
a0003dd8:	00612823          	sw	t1,16(sp)
a0003ddc:	00078613          	mv	a2,a5
a0003de0:	00400513          	li	a0,4
a0003de4:	00000793          	li	a5,0
a0003de8:	00f606b3          	add	a3,a2,a5
a0003dec:	00f58733          	add	a4,a1,a5
a0003df0:	00468683          	lb	a3,4(a3)
a0003df4:	00470703          	lb	a4,4(a4)
a0003df8:	0ae69c63          	bne	a3,a4,a0003eb0 <bench_15pz_run+0x3dc>
a0003dfc:	00178793          	addi	a5,a5,1
a0003e00:	fea794e3          	bne	a5,a0,a0003de8 <bench_15pz_run+0x314>
a0003e04:	00460613          	addi	a2,a2,4
a0003e08:	00458593          	addi	a1,a1,4
a0003e0c:	fcc31ce3          	bne	t1,a2,a0003de4 <bench_15pz_run+0x310>
a0003e10:	0044a583          	lw	a1,4(s1)
a0003e14:	0004a503          	lw	a0,0(s1)
a0003e18:	04010613          	addi	a2,sp,64
a0003e1c:	c24ff0ef          	jal	ra,a0003240 <_ZNK14Updatable_heapI8N_puzzleILi4EEE7pointerERKS1_.isra.0>
a0003e20:	800005b7          	lui	a1,0x80000
a0003e24:	fff5c593          	not	a1,a1
a0003e28:	00050463          	beqz	a0,a0003e30 <bench_15pz_run+0x35c>
a0003e2c:	02052583          	lw	a1,32(a0)
a0003e30:	00012503          	lw	a0,0(sp)
a0003e34:	681010ef          	jal	ra,a0005cb4 <__mulsi3>
a0003e38:	00004797          	auipc	a5,0x4
a0003e3c:	33878793          	addi	a5,a5,824 # a0008170 <_ZL3ans>
a0003e40:	00a7a023          	sw	a0,0(a5)
a0003e44:	0b812083          	lw	ra,184(sp)
a0003e48:	0b412403          	lw	s0,180(sp)
a0003e4c:	0b012483          	lw	s1,176(sp)
a0003e50:	0bc10113          	addi	sp,sp,188
a0003e54:	00008067          	ret
a0003e58:	0044a583          	lw	a1,4(s1)
a0003e5c:	0004a503          	lw	a0,0(s1)
a0003e60:	04010613          	addi	a2,sp,64
a0003e64:	bdcff0ef          	jal	ra,a0003240 <_ZNK14Updatable_heapI8N_puzzleILi4EEE7pointerERKS1_.isra.0>
a0003e68:	6e050263          	beqz	a0,a000454c <bench_15pz_run+0xa78>
a0003e6c:	02052603          	lw	a2,32(a0)
a0003e70:	00160613          	addi	a2,a2,1
a0003e74:	05810593          	addi	a1,sp,88
a0003e78:	00048513          	mv	a0,s1
a0003e7c:	909ff0ef          	jal	ra,a0003784 <_ZN14Updatable_heapI8N_puzzleILi4EEE4pushERKS1_i>
a0003e80:	00c4a603          	lw	a2,12(s1)
a0003e84:	fc0600e3          	beqz	a2,a0003e44 <bench_15pz_run+0x370>
a0003e88:	01812783          	lw	a5,24(sp)
a0003e8c:	00012703          	lw	a4,0(sp)
a0003e90:	dee79ae3          	bne	a5,a4,a0003c84 <bench_15pz_run+0x1b0>
a0003e94:	0b812083          	lw	ra,184(sp)
a0003e98:	0b412403          	lw	s0,180(sp)
a0003e9c:	0b012483          	lw	s1,176(sp)
a0003ea0:	0bc10113          	addi	sp,sp,188
a0003ea4:	00008067          	ret
a0003ea8:	05010793          	addi	a5,sp,80
a0003eac:	00f12823          	sw	a5,16(sp)
a0003eb0:	00812703          	lw	a4,8(sp)
a0003eb4:	00300793          	li	a5,3
a0003eb8:	4cf70e63          	beq	a4,a5,a0004394 <bench_15pz_run+0x8c0>
a0003ebc:	01012283          	lw	t0,16(sp)
a0003ec0:	00040593          	mv	a1,s0
a0003ec4:	00040713          	mv	a4,s0
a0003ec8:	04010793          	addi	a5,sp,64
a0003ecc:	0047c303          	lbu	t1,4(a5)
a0003ed0:	0057c503          	lbu	a0,5(a5)
a0003ed4:	0067c603          	lbu	a2,6(a5)
a0003ed8:	0077c683          	lbu	a3,7(a5)
a0003edc:	00670223          	sb	t1,4(a4)
a0003ee0:	00a702a3          	sb	a0,5(a4)
a0003ee4:	00c70323          	sb	a2,6(a4)
a0003ee8:	00d703a3          	sb	a3,7(a4)
a0003eec:	00478793          	addi	a5,a5,4
a0003ef0:	00470713          	addi	a4,a4,4
a0003ef4:	fc579ce3          	bne	a5,t0,a0003ecc <bench_15pz_run+0x3f8>
a0003ef8:	00c12783          	lw	a5,12(sp)
a0003efc:	00812383          	lw	t2,8(sp)
a0003f00:	02810713          	addi	a4,sp,40
a0003f04:	00279793          	slli	a5,a5,0x2
a0003f08:	00f12a23          	sw	a5,20(sp)
a0003f0c:	08878793          	addi	a5,a5,136
a0003f10:	00138293          	addi	t0,t2,1
a0003f14:	00e78733          	add	a4,a5,a4
a0003f18:	005707b3          	add	a5,a4,t0
a0003f1c:	f9478683          	lb	a3,-108(a5)
a0003f20:	00770533          	add	a0,a4,t2
a0003f24:	0ff2f613          	zext.b	a2,t0
a0003f28:	fff68793          	addi	a5,a3,-1
a0003f2c:	41f7d313          	srai	t1,a5,0x1f
a0003f30:	01e35313          	srli	t1,t1,0x1e
a0003f34:	006787b3          	add	a5,a5,t1
a0003f38:	0037f793          	andi	a5,a5,3
a0003f3c:	406787b3          	sub	a5,a5,t1
a0003f40:	40778333          	sub	t1,a5,t2
a0003f44:	405787b3          	sub	a5,a5,t0
a0003f48:	41f7d393          	srai	t2,a5,0x1f
a0003f4c:	41f35093          	srai	ra,t1,0x1f
a0003f50:	00f3c7b3          	xor	a5,t2,a5
a0003f54:	0060c333          	xor	t1,ra,t1
a0003f58:	407787b3          	sub	a5,a5,t2
a0003f5c:	40130333          	sub	t1,t1,ra
a0003f60:	40f30333          	sub	t1,t1,a5
a0003f64:	01c12783          	lw	a5,28(sp)
a0003f68:	fcd50223          	sb	a3,-60(a0)
a0003f6c:	00c70733          	add	a4,a4,a2
a0003f70:	00f30333          	add	t1,t1,a5
a0003f74:	00440513          	addi	a0,s0,4
a0003f78:	01831313          	slli	t1,t1,0x18
a0003f7c:	41835313          	srai	t1,t1,0x18
a0003f80:	0ff2f293          	zext.b	t0,t0
a0003f84:	fc070223          	sb	zero,-60(a4)
a0003f88:	00050693          	mv	a3,a0
a0003f8c:	01440393          	addi	t2,s0,20
a0003f90:	00000793          	li	a5,0
a0003f94:	ffc68713          	addi	a4,a3,-4
a0003f98:	00579613          	slli	a2,a5,0x5
a0003f9c:	40f60633          	sub	a2,a2,a5
a0003fa0:	00261613          	slli	a2,a2,0x2
a0003fa4:	40f60633          	sub	a2,a2,a5
a0003fa8:	00261613          	slli	a2,a2,0x2
a0003fac:	00470083          	lb	ra,4(a4)
a0003fb0:	00f60633          	add	a2,a2,a5
a0003fb4:	00261613          	slli	a2,a2,0x2
a0003fb8:	00f607b3          	add	a5,a2,a5
a0003fbc:	00170713          	addi	a4,a4,1
a0003fc0:	001787b3          	add	a5,a5,ra
a0003fc4:	fce69ae3          	bne	a3,a4,a0003f98 <bench_15pz_run+0x4c4>
a0003fc8:	00468693          	addi	a3,a3,4
a0003fcc:	fc7694e3          	bne	a3,t2,a0003f94 <bench_15pz_run+0x4c0>
a0003fd0:	00100713          	li	a4,1
a0003fd4:	04e10c23          	sb	a4,88(sp)
a0003fd8:	00c12703          	lw	a4,12(sp)
a0003fdc:	04510d23          	sb	t0,90(sp)
a0003fe0:	06f12623          	sw	a5,108(sp)
a0003fe4:	04e10ca3          	sb	a4,89(sp)
a0003fe8:	04610da3          	sb	t1,91(sp)
a0003fec:	05810793          	addi	a5,sp,88
a0003ff0:	01040293          	addi	t0,s0,16
a0003ff4:	0045c303          	lbu	t1,4(a1) # 80000004 <_heap_end+0xdfdf7e4c>
a0003ff8:	0055c603          	lbu	a2,5(a1)
a0003ffc:	0065c683          	lbu	a3,6(a1)
a0004000:	0075c703          	lbu	a4,7(a1)
a0004004:	00678223          	sb	t1,4(a5)
a0004008:	00c782a3          	sb	a2,5(a5)
a000400c:	00d78323          	sb	a3,6(a5)
a0004010:	00e783a3          	sb	a4,7(a5)
a0004014:	00050593          	mv	a1,a0
a0004018:	00478793          	addi	a5,a5,4
a000401c:	00a28663          	beq	t0,a0,a0004028 <bench_15pz_run+0x554>
a0004020:	00450513          	addi	a0,a0,4
a0004024:	fd1ff06f          	j	a0003ff4 <bench_15pz_run+0x520>
a0004028:	0044a583          	lw	a1,4(s1)
a000402c:	0004a503          	lw	a0,0(s1)
a0004030:	04010613          	addi	a2,sp,64
a0004034:	a0cff0ef          	jal	ra,a0003240 <_ZNK14Updatable_heapI8N_puzzleILi4EEE7pointerERKS1_.isra.0>
a0004038:	50050263          	beqz	a0,a000453c <bench_15pz_run+0xa68>
a000403c:	02052603          	lw	a2,32(a0)
a0004040:	00160613          	addi	a2,a2,1
a0004044:	05810593          	addi	a1,sp,88
a0004048:	00048513          	mv	a0,s1
a000404c:	f38ff0ef          	jal	ra,a0003784 <_ZN14Updatable_heapI8N_puzzleILi4EEE4pushERKS1_i>
a0004050:	00812783          	lw	a5,8(sp)
a0004054:	34079663          	bnez	a5,a00043a0 <bench_15pz_run+0x8cc>
a0004058:	00c12703          	lw	a4,12(sp)
a000405c:	00300793          	li	a5,3
a0004060:	1af70c63          	beq	a4,a5,a0004218 <bench_15pz_run+0x744>
a0004064:	01012283          	lw	t0,16(sp)
a0004068:	00040593          	mv	a1,s0
a000406c:	00040713          	mv	a4,s0
a0004070:	04010793          	addi	a5,sp,64
a0004074:	0047c303          	lbu	t1,4(a5)
a0004078:	0057c503          	lbu	a0,5(a5)
a000407c:	0067c603          	lbu	a2,6(a5)
a0004080:	0077c683          	lbu	a3,7(a5)
a0004084:	00670223          	sb	t1,4(a4)
a0004088:	00a702a3          	sb	a0,5(a4)
a000408c:	00c70323          	sb	a2,6(a4)
a0004090:	00d703a3          	sb	a3,7(a4)
a0004094:	00478793          	addi	a5,a5,4
a0004098:	00470713          	addi	a4,a4,4
a000409c:	fcf29ce3          	bne	t0,a5,a0004074 <bench_15pz_run+0x5a0>
a00040a0:	00c12503          	lw	a0,12(sp)
a00040a4:	00812083          	lw	ra,8(sp)
a00040a8:	02810713          	addi	a4,sp,40
a00040ac:	00150293          	addi	t0,a0,1
a00040b0:	00229793          	slli	a5,t0,0x2
a00040b4:	08878793          	addi	a5,a5,136
a00040b8:	00e787b3          	add	a5,a5,a4
a00040bc:	001787b3          	add	a5,a5,ra
a00040c0:	f9478683          	lb	a3,-108(a5)
a00040c4:	0ff2f713          	zext.b	a4,t0
a00040c8:	00271713          	slli	a4,a4,0x2
a00040cc:	fff68613          	addi	a2,a3,-1
a00040d0:	41f65793          	srai	a5,a2,0x1f
a00040d4:	0037f793          	andi	a5,a5,3
a00040d8:	00c787b3          	add	a5,a5,a2
a00040dc:	4027d793          	srai	a5,a5,0x2
a00040e0:	40a78633          	sub	a2,a5,a0
a00040e4:	405787b3          	sub	a5,a5,t0
a00040e8:	41f65393          	srai	t2,a2,0x1f
a00040ec:	41f7d513          	srai	a0,a5,0x1f
a00040f0:	00c3c333          	xor	t1,t2,a2
a00040f4:	00f547b3          	xor	a5,a0,a5
a00040f8:	40a787b3          	sub	a5,a5,a0
a00040fc:	40730333          	sub	t1,t1,t2
a0004100:	40f30333          	sub	t1,t1,a5
a0004104:	01412783          	lw	a5,20(sp)
a0004108:	02810613          	addi	a2,sp,40
a000410c:	00440513          	addi	a0,s0,4
a0004110:	08878793          	addi	a5,a5,136
a0004114:	00c78633          	add	a2,a5,a2
a0004118:	08870793          	addi	a5,a4,136
a000411c:	02810713          	addi	a4,sp,40
a0004120:	00e787b3          	add	a5,a5,a4
a0004124:	01c12703          	lw	a4,28(sp)
a0004128:	00160633          	add	a2,a2,ra
a000412c:	fcd60223          	sb	a3,-60(a2)
a0004130:	00e30333          	add	t1,t1,a4
a0004134:	001787b3          	add	a5,a5,ra
a0004138:	01831313          	slli	t1,t1,0x18
a000413c:	fc078223          	sb	zero,-60(a5)
a0004140:	41835313          	srai	t1,t1,0x18
a0004144:	0ff2f293          	zext.b	t0,t0
a0004148:	00050613          	mv	a2,a0
a000414c:	01440393          	addi	t2,s0,20
a0004150:	00000793          	li	a5,0
a0004154:	ffc60713          	addi	a4,a2,-4
a0004158:	00579693          	slli	a3,a5,0x5
a000415c:	40f686b3          	sub	a3,a3,a5
a0004160:	00269693          	slli	a3,a3,0x2
a0004164:	40f686b3          	sub	a3,a3,a5
a0004168:	00269693          	slli	a3,a3,0x2
a000416c:	00470083          	lb	ra,4(a4)
a0004170:	00f686b3          	add	a3,a3,a5
a0004174:	00269693          	slli	a3,a3,0x2
a0004178:	00f687b3          	add	a5,a3,a5
a000417c:	00170713          	addi	a4,a4,1
a0004180:	001787b3          	add	a5,a5,ra
a0004184:	fcc71ae3          	bne	a4,a2,a0004158 <bench_15pz_run+0x684>
a0004188:	00470613          	addi	a2,a4,4
a000418c:	fcc394e3          	bne	t2,a2,a0004154 <bench_15pz_run+0x680>
a0004190:	00100713          	li	a4,1
a0004194:	04e10c23          	sb	a4,88(sp)
a0004198:	00812703          	lw	a4,8(sp)
a000419c:	04510ca3          	sb	t0,89(sp)
a00041a0:	06f12623          	sw	a5,108(sp)
a00041a4:	04e10d23          	sb	a4,90(sp)
a00041a8:	04610da3          	sb	t1,91(sp)
a00041ac:	05810793          	addi	a5,sp,88
a00041b0:	01040293          	addi	t0,s0,16
a00041b4:	0045c303          	lbu	t1,4(a1)
a00041b8:	0055c603          	lbu	a2,5(a1)
a00041bc:	0065c683          	lbu	a3,6(a1)
a00041c0:	0075c703          	lbu	a4,7(a1)
a00041c4:	00678223          	sb	t1,4(a5)
a00041c8:	00c782a3          	sb	a2,5(a5)
a00041cc:	00d78323          	sb	a3,6(a5)
a00041d0:	00e783a3          	sb	a4,7(a5)
a00041d4:	00050593          	mv	a1,a0
a00041d8:	00478793          	addi	a5,a5,4
a00041dc:	00550663          	beq	a0,t0,a00041e8 <bench_15pz_run+0x714>
a00041e0:	00450513          	addi	a0,a0,4
a00041e4:	fd1ff06f          	j	a00041b4 <bench_15pz_run+0x6e0>
a00041e8:	0044a583          	lw	a1,4(s1)
a00041ec:	0004a503          	lw	a0,0(s1)
a00041f0:	04010613          	addi	a2,sp,64
a00041f4:	84cff0ef          	jal	ra,a0003240 <_ZNK14Updatable_heapI8N_puzzleILi4EEE7pointerERKS1_.isra.0>
a00041f8:	32050e63          	beqz	a0,a0004534 <bench_15pz_run+0xa60>
a00041fc:	02052603          	lw	a2,32(a0)
a0004200:	00160613          	addi	a2,a2,1
a0004204:	05810593          	addi	a1,sp,88
a0004208:	00048513          	mv	a0,s1
a000420c:	d78ff0ef          	jal	ra,a0003784 <_ZN14Updatable_heapI8N_puzzleILi4EEE4pushERKS1_i>
a0004210:	00c12783          	lw	a5,12(sp)
a0004214:	c60786e3          	beqz	a5,a0003e80 <bench_15pz_run+0x3ac>
a0004218:	02012703          	lw	a4,32(sp)
a000421c:	01012283          	lw	t0,16(sp)
a0004220:	00040593          	mv	a1,s0
a0004224:	00040793          	mv	a5,s0
a0004228:	00474303          	lbu	t1,4(a4)
a000422c:	00574503          	lbu	a0,5(a4)
a0004230:	00674603          	lbu	a2,6(a4)
a0004234:	00774683          	lbu	a3,7(a4)
a0004238:	00678223          	sb	t1,4(a5)
a000423c:	00a782a3          	sb	a0,5(a5)
a0004240:	00c78323          	sb	a2,6(a5)
a0004244:	00d783a3          	sb	a3,7(a5)
a0004248:	00470713          	addi	a4,a4,4
a000424c:	00478793          	addi	a5,a5,4
a0004250:	fc571ce3          	bne	a4,t0,a0004228 <bench_15pz_run+0x754>
a0004254:	00c12303          	lw	t1,12(sp)
a0004258:	00812083          	lw	ra,8(sp)
a000425c:	02810713          	addi	a4,sp,40
a0004260:	fff30513          	addi	a0,t1,-1
a0004264:	00251793          	slli	a5,a0,0x2
a0004268:	08878793          	addi	a5,a5,136
a000426c:	00e787b3          	add	a5,a5,a4
a0004270:	001787b3          	add	a5,a5,ra
a0004274:	f9478683          	lb	a3,-108(a5)
a0004278:	01412783          	lw	a5,20(sp)
a000427c:	0ff57393          	zext.b	t2,a0
a0004280:	fff68613          	addi	a2,a3,-1
a0004284:	08878793          	addi	a5,a5,136
a0004288:	00e78733          	add	a4,a5,a4
a000428c:	41f65793          	srai	a5,a2,0x1f
a0004290:	0037f793          	andi	a5,a5,3
a0004294:	00c787b3          	add	a5,a5,a2
a0004298:	4027d793          	srai	a5,a5,0x2
a000429c:	40678633          	sub	a2,a5,t1
a00042a0:	40a787b3          	sub	a5,a5,a0
a00042a4:	41f65293          	srai	t0,a2,0x1f
a00042a8:	41f7d513          	srai	a0,a5,0x1f
a00042ac:	00c2c333          	xor	t1,t0,a2
a00042b0:	00f547b3          	xor	a5,a0,a5
a00042b4:	40a787b3          	sub	a5,a5,a0
a00042b8:	40530333          	sub	t1,t1,t0
a00042bc:	00239613          	slli	a2,t2,0x2
a00042c0:	40f30333          	sub	t1,t1,a5
a00042c4:	08860793          	addi	a5,a2,136
a00042c8:	02810613          	addi	a2,sp,40
a00042cc:	00c787b3          	add	a5,a5,a2
a00042d0:	01c12603          	lw	a2,28(sp)
a00042d4:	00170733          	add	a4,a4,ra
a00042d8:	001787b3          	add	a5,a5,ra
a00042dc:	00c30333          	add	t1,t1,a2
a00042e0:	fcd70223          	sb	a3,-60(a4)
a00042e4:	00440513          	addi	a0,s0,4
a00042e8:	01831313          	slli	t1,t1,0x18
a00042ec:	fc078223          	sb	zero,-60(a5)
a00042f0:	41835313          	srai	t1,t1,0x18
a00042f4:	00050613          	mv	a2,a0
a00042f8:	01440293          	addi	t0,s0,20
a00042fc:	00000793          	li	a5,0
a0004300:	ffc60713          	addi	a4,a2,-4
a0004304:	00579693          	slli	a3,a5,0x5
a0004308:	40f686b3          	sub	a3,a3,a5
a000430c:	00269693          	slli	a3,a3,0x2
a0004310:	40f686b3          	sub	a3,a3,a5
a0004314:	00269693          	slli	a3,a3,0x2
a0004318:	00470083          	lb	ra,4(a4)
a000431c:	00f686b3          	add	a3,a3,a5
a0004320:	00269693          	slli	a3,a3,0x2
a0004324:	00f687b3          	add	a5,a3,a5
a0004328:	00170713          	addi	a4,a4,1
a000432c:	001787b3          	add	a5,a5,ra
a0004330:	fcc71ae3          	bne	a4,a2,a0004304 <bench_15pz_run+0x830>
a0004334:	00470613          	addi	a2,a4,4
a0004338:	fc5614e3          	bne	a2,t0,a0004300 <bench_15pz_run+0x82c>
a000433c:	00100713          	li	a4,1
a0004340:	04e10c23          	sb	a4,88(sp)
a0004344:	00812703          	lw	a4,8(sp)
a0004348:	06f12623          	sw	a5,108(sp)
a000434c:	04710ca3          	sb	t2,89(sp)
a0004350:	04e10d23          	sb	a4,90(sp)
a0004354:	04610da3          	sb	t1,91(sp)
a0004358:	05810793          	addi	a5,sp,88
a000435c:	01040293          	addi	t0,s0,16
a0004360:	0045c303          	lbu	t1,4(a1)
a0004364:	0055c603          	lbu	a2,5(a1)
a0004368:	0065c683          	lbu	a3,6(a1)
a000436c:	0075c703          	lbu	a4,7(a1)
a0004370:	00678223          	sb	t1,4(a5)
a0004374:	00c782a3          	sb	a2,5(a5)
a0004378:	00d78323          	sb	a3,6(a5)
a000437c:	00e783a3          	sb	a4,7(a5)
a0004380:	00050593          	mv	a1,a0
a0004384:	00478793          	addi	a5,a5,4
a0004388:	ac5508e3          	beq	a0,t0,a0003e58 <bench_15pz_run+0x384>
a000438c:	00450513          	addi	a0,a0,4
a0004390:	fd1ff06f          	j	a0004360 <bench_15pz_run+0x88c>
a0004394:	00c12783          	lw	a5,12(sp)
a0004398:	00279793          	slli	a5,a5,0x2
a000439c:	00f12a23          	sw	a5,20(sp)
a00043a0:	01012283          	lw	t0,16(sp)
a00043a4:	00040593          	mv	a1,s0
a00043a8:	00040713          	mv	a4,s0
a00043ac:	04010793          	addi	a5,sp,64
a00043b0:	0047c303          	lbu	t1,4(a5)
a00043b4:	0057c503          	lbu	a0,5(a5)
a00043b8:	0067c603          	lbu	a2,6(a5)
a00043bc:	0077c683          	lbu	a3,7(a5)
a00043c0:	00670223          	sb	t1,4(a4)
a00043c4:	00a702a3          	sb	a0,5(a4)
a00043c8:	00c70323          	sb	a2,6(a4)
a00043cc:	00d703a3          	sb	a3,7(a4)
a00043d0:	00478793          	addi	a5,a5,4
a00043d4:	00470713          	addi	a4,a4,4
a00043d8:	fc579ce3          	bne	a5,t0,a00043b0 <bench_15pz_run+0x8dc>
a00043dc:	01412783          	lw	a5,20(sp)
a00043e0:	00812283          	lw	t0,8(sp)
a00043e4:	02810713          	addi	a4,sp,40
a00043e8:	08878793          	addi	a5,a5,136
a00043ec:	fff28513          	addi	a0,t0,-1
a00043f0:	00e78733          	add	a4,a5,a4
a00043f4:	00a707b3          	add	a5,a4,a0
a00043f8:	f9478683          	lb	a3,-108(a5)
a00043fc:	00570633          	add	a2,a4,t0
a0004400:	0ff57393          	zext.b	t2,a0
a0004404:	fff68793          	addi	a5,a3,-1
a0004408:	41f7d313          	srai	t1,a5,0x1f
a000440c:	01e35313          	srli	t1,t1,0x1e
a0004410:	006787b3          	add	a5,a5,t1
a0004414:	0037f793          	andi	a5,a5,3
a0004418:	406787b3          	sub	a5,a5,t1
a000441c:	40578333          	sub	t1,a5,t0
a0004420:	40a787b3          	sub	a5,a5,a0
a0004424:	41f35293          	srai	t0,t1,0x1f
a0004428:	41f7d513          	srai	a0,a5,0x1f
a000442c:	0062c333          	xor	t1,t0,t1
a0004430:	00f547b3          	xor	a5,a0,a5
a0004434:	40a787b3          	sub	a5,a5,a0
a0004438:	40530333          	sub	t1,t1,t0
a000443c:	40f30333          	sub	t1,t1,a5
a0004440:	01c12783          	lw	a5,28(sp)
a0004444:	fcd60223          	sb	a3,-60(a2)
a0004448:	00770733          	add	a4,a4,t2
a000444c:	00f30333          	add	t1,t1,a5
a0004450:	00440513          	addi	a0,s0,4
a0004454:	01831313          	slli	t1,t1,0x18
a0004458:	41835313          	srai	t1,t1,0x18
a000445c:	fc070223          	sb	zero,-60(a4)
a0004460:	00050693          	mv	a3,a0
a0004464:	01440293          	addi	t0,s0,20
a0004468:	00000793          	li	a5,0
a000446c:	ffc68713          	addi	a4,a3,-4
a0004470:	00579613          	slli	a2,a5,0x5
a0004474:	40f60633          	sub	a2,a2,a5
a0004478:	00261613          	slli	a2,a2,0x2
a000447c:	40f60633          	sub	a2,a2,a5
a0004480:	00261613          	slli	a2,a2,0x2
a0004484:	00470083          	lb	ra,4(a4)
a0004488:	00f60633          	add	a2,a2,a5
a000448c:	00261613          	slli	a2,a2,0x2
a0004490:	00f607b3          	add	a5,a2,a5
a0004494:	00170713          	addi	a4,a4,1
a0004498:	001787b3          	add	a5,a5,ra
a000449c:	fce69ae3          	bne	a3,a4,a0004470 <bench_15pz_run+0x99c>
a00044a0:	00468693          	addi	a3,a3,4
a00044a4:	fc5694e3          	bne	a3,t0,a000446c <bench_15pz_run+0x998>
a00044a8:	00100713          	li	a4,1
a00044ac:	04e10c23          	sb	a4,88(sp)
a00044b0:	00c12703          	lw	a4,12(sp)
a00044b4:	06f12623          	sw	a5,108(sp)
a00044b8:	04710d23          	sb	t2,90(sp)
a00044bc:	04e10ca3          	sb	a4,89(sp)
a00044c0:	04610da3          	sb	t1,91(sp)
a00044c4:	05810793          	addi	a5,sp,88
a00044c8:	01040293          	addi	t0,s0,16
a00044cc:	0045c303          	lbu	t1,4(a1)
a00044d0:	0055c603          	lbu	a2,5(a1)
a00044d4:	0065c683          	lbu	a3,6(a1)
a00044d8:	0075c703          	lbu	a4,7(a1)
a00044dc:	00678223          	sb	t1,4(a5)
a00044e0:	00c782a3          	sb	a2,5(a5)
a00044e4:	00d78323          	sb	a3,6(a5)
a00044e8:	00e783a3          	sb	a4,7(a5)
a00044ec:	00050593          	mv	a1,a0
a00044f0:	00478793          	addi	a5,a5,4
a00044f4:	00a28663          	beq	t0,a0,a0004500 <bench_15pz_run+0xa2c>
a00044f8:	00450513          	addi	a0,a0,4
a00044fc:	fd1ff06f          	j	a00044cc <bench_15pz_run+0x9f8>
a0004500:	0044a583          	lw	a1,4(s1)
a0004504:	0004a503          	lw	a0,0(s1)
a0004508:	04010613          	addi	a2,sp,64
a000450c:	d35fe0ef          	jal	ra,a0003240 <_ZNK14Updatable_heapI8N_puzzleILi4EEE7pointerERKS1_.isra.0>
a0004510:	02050a63          	beqz	a0,a0004544 <bench_15pz_run+0xa70>
a0004514:	02052603          	lw	a2,32(a0)
a0004518:	00160613          	addi	a2,a2,1
a000451c:	05810593          	addi	a1,sp,88
a0004520:	00048513          	mv	a0,s1
a0004524:	a60ff0ef          	jal	ra,a0003784 <_ZN14Updatable_heapI8N_puzzleILi4EEE4pushERKS1_i>
a0004528:	b31ff06f          	j	a0004058 <bench_15pz_run+0x584>
a000452c:	0004a623          	sw	zero,12(s1)
a0004530:	805ff06f          	j	a0003d34 <bench_15pz_run+0x260>
a0004534:	80000637          	lui	a2,0x80000
a0004538:	ccdff06f          	j	a0004204 <bench_15pz_run+0x730>
a000453c:	80000637          	lui	a2,0x80000
a0004540:	b05ff06f          	j	a0004044 <bench_15pz_run+0x570>
a0004544:	80000637          	lui	a2,0x80000
a0004548:	fd5ff06f          	j	a000451c <bench_15pz_run+0xa48>
a000454c:	80000637          	lui	a2,0x80000
a0004550:	925ff06f          	j	a0003e74 <bench_15pz_run+0x3a0>
a0004554:	07010413          	addi	s0,sp,112
a0004558:	00003597          	auipc	a1,0x3
a000455c:	60458593          	addi	a1,a1,1540 # a0007b5c <_ZL8PUZZLE_S>
a0004560:	00040513          	mv	a0,s0
a0004564:	f39fe0ef          	jal	ra,a000349c <_ZN8N_puzzleILi4EEC1EPi>
a0004568:	07012703          	lw	a4,112(sp)
a000456c:	08010313          	addi	t1,sp,128
a0004570:	00040793          	mv	a5,s0
a0004574:	02e12423          	sw	a4,40(sp)
a0004578:	08412703          	lw	a4,132(sp)
a000457c:	00612223          	sw	t1,4(sp)
a0004580:	02e12e23          	sw	a4,60(sp)
a0004584:	02810713          	addi	a4,sp,40
a0004588:	0047c503          	lbu	a0,4(a5)
a000458c:	0057c583          	lbu	a1,5(a5)
a0004590:	0067c603          	lbu	a2,6(a5)
a0004594:	0077c683          	lbu	a3,7(a5)
a0004598:	00a70223          	sb	a0,4(a4)
a000459c:	00b702a3          	sb	a1,5(a4)
a00045a0:	00c70323          	sb	a2,6(a4)
a00045a4:	00d703a3          	sb	a3,7(a4)
a00045a8:	00478793          	addi	a5,a5,4
a00045ac:	00470713          	addi	a4,a4,4
a00045b0:	fcf31ce3          	bne	t1,a5,a0004588 <bench_15pz_run+0xab4>
a00045b4:	00a00793          	li	a5,10
a00045b8:	00f12c23          	sw	a5,24(sp)
a00045bc:	e34ff06f          	j	a0003bf0 <bench_15pz_run+0x11c>
a00045c0:	07010413          	addi	s0,sp,112
a00045c4:	00003597          	auipc	a1,0x3
a00045c8:	51858593          	addi	a1,a1,1304 # a0007adc <_ZL8PUZZLE_L>
a00045cc:	00040513          	mv	a0,s0
a00045d0:	ecdfe0ef          	jal	ra,a000349c <_ZN8N_puzzleILi4EEC1EPi>
a00045d4:	07012703          	lw	a4,112(sp)
a00045d8:	08010313          	addi	t1,sp,128
a00045dc:	00040793          	mv	a5,s0
a00045e0:	02e12423          	sw	a4,40(sp)
a00045e4:	08412703          	lw	a4,132(sp)
a00045e8:	00612223          	sw	t1,4(sp)
a00045ec:	02e12e23          	sw	a4,60(sp)
a00045f0:	02810713          	addi	a4,sp,40
a00045f4:	0047c503          	lbu	a0,4(a5)
a00045f8:	0057c583          	lbu	a1,5(a5)
a00045fc:	0067c603          	lbu	a2,6(a5)
a0004600:	0077c683          	lbu	a3,7(a5)
a0004604:	00a70223          	sb	a0,4(a4)
a0004608:	00b702a3          	sb	a1,5(a4)
a000460c:	00c70323          	sb	a2,6(a4)
a0004610:	00d703a3          	sb	a3,7(a4)
a0004614:	00478793          	addi	a5,a5,4
a0004618:	00470713          	addi	a4,a4,4
a000461c:	fcf31ce3          	bne	t1,a5,a00045f4 <bench_15pz_run+0xb20>
a0004620:	000047b7          	lui	a5,0x4
a0004624:	00f12c23          	sw	a5,24(sp)
a0004628:	dc8ff06f          	j	a0003bf0 <bench_15pz_run+0x11c>
a000462c:	03500613          	li	a2,53
a0004630:	00003597          	auipc	a1,0x3
a0004634:	a9858593          	addi	a1,a1,-1384 # a00070c8 <r+0x150>
a0004638:	00003517          	auipc	a0,0x3
a000463c:	82450513          	addi	a0,a0,-2012 # a0006e5c <_etext+0x54>
a0004640:	5d8020ef          	jal	ra,a0006c18 <printf>
a0004644:	00100513          	li	a0,1
a0004648:	785000ef          	jal	ra,a00055cc <halt>
a000464c:	05600613          	li	a2,86
a0004650:	00003597          	auipc	a1,0x3
a0004654:	a2858593          	addi	a1,a1,-1496 # a0007078 <r+0x100>
a0004658:	00003517          	auipc	a0,0x3
a000465c:	80450513          	addi	a0,a0,-2044 # a0006e5c <_etext+0x54>
a0004660:	5b8020ef          	jal	ra,a0006c18 <printf>
a0004664:	00100513          	li	a0,1
a0004668:	765000ef          	jal	ra,a00055cc <halt>
a000466c:	03300613          	li	a2,51
a0004670:	fc1ff06f          	j	a0004630 <bench_15pz_run+0xb5c>

a0004674 <bench_bf_prepare>:
a0004674:	00004797          	auipc	a5,0x4
a0004678:	b2c7a783          	lw	a5,-1236(a5) # a00081a0 <setting>
a000467c:	0007a783          	lw	a5,0(a5)
a0004680:	ff010113          	addi	sp,sp,-16
a0004684:	00812423          	sw	s0,8(sp)
a0004688:	00004537          	lui	a0,0x4
a000468c:	00004417          	auipc	s0,0x4
a0004690:	ae840413          	addi	s0,s0,-1304 # a0008174 <ARR_SIZE>
a0004694:	00112623          	sw	ra,12(sp)
a0004698:	00f42023          	sw	a5,0(s0)
a000469c:	00912223          	sw	s1,4(sp)
a00046a0:	00004797          	auipc	a5,0x4
a00046a4:	ac07ae23          	sw	zero,-1316(a5) # a000817c <SP>
a00046a8:	361000ef          	jal	ra,a0005208 <bench_alloc>
a00046ac:	00050793          	mv	a5,a0
a00046b0:	40000513          	li	a0,1024
a00046b4:	00004717          	auipc	a4,0x4
a00046b8:	acf72223          	sw	a5,-1340(a4) # a0008178 <PROGRAM>
a00046bc:	34d000ef          	jal	ra,a0005208 <bench_alloc>
a00046c0:	00050793          	mv	a5,a0
a00046c4:	00002537          	lui	a0,0x2
a00046c8:	00004717          	auipc	a4,0x4
a00046cc:	aaf72c23          	sw	a5,-1352(a4) # a0008180 <STACK>
a00046d0:	339000ef          	jal	ra,a0005208 <bench_alloc>
a00046d4:	00042783          	lw	a5,0(s0)
a00046d8:	00004717          	auipc	a4,0x4
a00046dc:	aaa72823          	sw	a0,-1360(a4) # a0008188 <data>
a00046e0:	00178513          	addi	a0,a5,1
a00046e4:	00003797          	auipc	a5,0x3
a00046e8:	a3478793          	addi	a5,a5,-1484 # a0007118 <r+0x1a0>
a00046ec:	00004717          	auipc	a4,0x4
a00046f0:	a8f72c23          	sw	a5,-1384(a4) # a0008184 <code>
a00046f4:	315000ef          	jal	ra,a0005208 <bench_alloc>
a00046f8:	00050793          	mv	a5,a0
a00046fc:	00004717          	auipc	a4,0x4
a0004700:	a9070713          	addi	a4,a4,-1392 # a000818c <input>
a0004704:	00001537          	lui	a0,0x1
a0004708:	00f72023          	sw	a5,0(a4)
a000470c:	2fd000ef          	jal	ra,a0005208 <bench_alloc>
a0004710:	00050793          	mv	a5,a0
a0004714:	00100513          	li	a0,1
a0004718:	00004717          	auipc	a4,0x4
a000471c:	a6f72e23          	sw	a5,-1412(a4) # a0008194 <output>
a0004720:	00004797          	auipc	a5,0x4
a0004724:	a607a823          	sw	zero,-1424(a5) # a0008190 <noutput>
a0004728:	389000ef          	jal	ra,a00052b0 <bench_srand>
a000472c:	00042783          	lw	a5,0(s0)
a0004730:	04f05663          	blez	a5,a000477c <bench_bf_prepare+0x108>
a0004734:	00000493          	li	s1,0
a0004738:	38d000ef          	jal	ra,a00052c4 <bench_rand>
a000473c:	00004797          	auipc	a5,0x4
a0004740:	a5078793          	addi	a5,a5,-1456 # a000818c <input>
a0004744:	0007a703          	lw	a4,0(a5)
a0004748:	03e00593          	li	a1,62
a000474c:	00970733          	add	a4,a4,s1
a0004750:	00e12023          	sw	a4,0(sp)
a0004754:	4fc010ef          	jal	ra,a0005c50 <__umodsi3>
a0004758:	00003797          	auipc	a5,0x3
a000475c:	a7478793          	addi	a5,a5,-1420 # a00071cc <r+0x254>
a0004760:	00a78533          	add	a0,a5,a0
a0004764:	00054583          	lbu	a1,0(a0) # 1000 <_rodata_size+0x36c>
a0004768:	00012703          	lw	a4,0(sp)
a000476c:	00042683          	lw	a3,0(s0)
a0004770:	00148493          	addi	s1,s1,1
a0004774:	00b70023          	sb	a1,0(a4)
a0004778:	fcd4c0e3          	blt	s1,a3,a0004738 <bench_bf_prepare+0xc4>
a000477c:	00c12083          	lw	ra,12(sp)
a0004780:	00812403          	lw	s0,8(sp)
a0004784:	00412483          	lw	s1,4(sp)
a0004788:	01010113          	addi	sp,sp,16
a000478c:	00008067          	ret

a0004790 <bench_bf_run>:
a0004790:	00004797          	auipc	a5,0x4
a0004794:	9f478793          	addi	a5,a5,-1548 # a0008184 <code>
a0004798:	0007a683          	lw	a3,0(a5)
a000479c:	fec10113          	addi	sp,sp,-20
a00047a0:	00004797          	auipc	a5,0x4
a00047a4:	9dc78793          	addi	a5,a5,-1572 # a000817c <SP>
a00047a8:	0007a383          	lw	t2,0(a5)
a00047ac:	00812823          	sw	s0,16(sp)
a00047b0:	00912623          	sw	s1,12(sp)
a00047b4:	0006c783          	lbu	a5,0(a3)
a00047b8:	00712423          	sw	t2,8(sp)
a00047bc:	00004617          	auipc	a2,0x4
a00047c0:	9bc62603          	lw	a2,-1604(a2) # a0008178 <PROGRAM>
a00047c4:	3e078263          	beqz	a5,a0004ba8 <bench_bf_run+0x418>
a00047c8:	00004717          	auipc	a4,0x4
a00047cc:	9b872703          	lw	a4,-1608(a4) # a0008180 <STACK>
a00047d0:	00000493          	li	s1,0
a00047d4:	00e12223          	sw	a4,4(sp)
a00047d8:	00168693          	addi	a3,a3,1
a00047dc:	00000313          	li	t1,0
a00047e0:	00000713          	li	a4,0
a00047e4:	03200513          	li	a0,50
a00047e8:	00003597          	auipc	a1,0x3
a00047ec:	a2458593          	addi	a1,a1,-1500 # a000720c <r+0x294>
a00047f0:	00001437          	lui	s0,0x1
a00047f4:	00912023          	sw	s1,0(sp)
a00047f8:	fd578793          	addi	a5,a5,-43
a00047fc:	0ff7f793          	zext.b	a5,a5
a0004800:	00f56c63          	bltu	a0,a5,a0004818 <bench_bf_run+0x88>
a0004804:	00279793          	slli	a5,a5,0x2
a0004808:	00b787b3          	add	a5,a5,a1
a000480c:	0007a783          	lw	a5,0(a5)
a0004810:	00b787b3          	add	a5,a5,a1
a0004814:	00078067          	jr	a5
a0004818:	0006c783          	lbu	a5,0(a3)
a000481c:	00068293          	mv	t0,a3
a0004820:	14078263          	beqz	a5,a0004964 <bench_bf_run+0x1d4>
a0004824:	00168693          	addi	a3,a3,1
a0004828:	00100313          	li	t1,1
a000482c:	fcdff06f          	j	a00047f8 <bench_bf_run+0x68>
a0004830:	32038463          	beqz	t2,a0004b58 <bench_bf_run+0x3c8>
a0004834:	00412303          	lw	t1,4(sp)
a0004838:	fff38393          	addi	t2,t2,-1
a000483c:	00139793          	slli	a5,t2,0x1
a0004840:	00f307b3          	add	a5,t1,a5
a0004844:	0007d303          	lhu	t1,0(a5)
a0004848:	00271793          	slli	a5,a4,0x2
a000484c:	00f607b3          	add	a5,a2,a5
a0004850:	00231293          	slli	t0,t1,0x2
a0004854:	00800493          	li	s1,8
a0004858:	00679123          	sh	t1,2(a5)
a000485c:	00979023          	sh	s1,0(a5)
a0004860:	005607b3          	add	a5,a2,t0
a0004864:	00e79123          	sh	a4,2(a5)
a0004868:	00100793          	li	a5,1
a000486c:	00f12023          	sw	a5,0(sp)
a0004870:	0006c783          	lbu	a5,0(a3)
a0004874:	00170713          	addi	a4,a4,1
a0004878:	01071713          	slli	a4,a4,0x10
a000487c:	01075713          	srli	a4,a4,0x10
a0004880:	00068293          	mv	t0,a3
a0004884:	0e078063          	beqz	a5,a0004964 <bench_bf_run+0x1d4>
a0004888:	f8871ee3          	bne	a4,s0,a0004824 <bench_bf_run+0x94>
a000488c:	00012483          	lw	s1,0(sp)
a0004890:	00004797          	auipc	a5,0x4
a0004894:	8f478793          	addi	a5,a5,-1804 # a0008184 <code>
a0004898:	00d7a023          	sw	a3,0(a5)
a000489c:	00048863          	beqz	s1,a00048ac <bench_bf_run+0x11c>
a00048a0:	00004797          	auipc	a5,0x4
a00048a4:	8dc78793          	addi	a5,a5,-1828 # a000817c <SP>
a00048a8:	0077a023          	sw	t2,0(a5)
a00048ac:	00065783          	lhu	a5,0(a2)
a00048b0:	1c078463          	beqz	a5,a0004a78 <bench_bf_run+0x2e8>
a00048b4:	00004717          	auipc	a4,0x4
a00048b8:	8d870713          	addi	a4,a4,-1832 # a000818c <input>
a00048bc:	00072383          	lw	t2,0(a4)
a00048c0:	00004717          	auipc	a4,0x4
a00048c4:	8d070713          	addi	a4,a4,-1840 # a0008190 <noutput>
a00048c8:	00072403          	lw	s0,0(a4)
a00048cc:	00004717          	auipc	a4,0x4
a00048d0:	8c872703          	lw	a4,-1848(a4) # a0008194 <output>
a00048d4:	00e12423          	sw	a4,8(sp)
a00048d8:	00004297          	auipc	t0,0x4
a00048dc:	8b02a283          	lw	t0,-1872(t0) # a0008188 <data>
a00048e0:	00060713          	mv	a4,a2
a00048e4:	00012023          	sw	zero,0(sp)
a00048e8:	00012223          	sw	zero,4(sp)
a00048ec:	00000693          	li	a3,0
a00048f0:	00000513          	li	a0,0
a00048f4:	00800313          	li	t1,8
a00048f8:	00003597          	auipc	a1,0x3
a00048fc:	9e058593          	addi	a1,a1,-1568 # a00072d8 <r+0x360>
a0004900:	14f36863          	bltu	t1,a5,a0004a50 <bench_bf_run+0x2c0>
a0004904:	00279793          	slli	a5,a5,0x2
a0004908:	00b787b3          	add	a5,a5,a1
a000490c:	0007a783          	lw	a5,0(a5)
a0004910:	00b787b3          	add	a5,a5,a1
a0004914:	00078067          	jr	a5
a0004918:	00271793          	slli	a5,a4,0x2
a000491c:	00f607b3          	add	a5,a2,a5
a0004920:	00700493          	li	s1,7
a0004924:	00979023          	sh	s1,0(a5)
a0004928:	20000793          	li	a5,512
a000492c:	24f38863          	beq	t2,a5,a0004b7c <bench_bf_run+0x3ec>
a0004930:	00412303          	lw	t1,4(sp)
a0004934:	00139793          	slli	a5,t2,0x1
a0004938:	00068293          	mv	t0,a3
a000493c:	00f307b3          	add	a5,t1,a5
a0004940:	00e79023          	sh	a4,0(a5)
a0004944:	00100793          	li	a5,1
a0004948:	00f12023          	sw	a5,0(sp)
a000494c:	0006c783          	lbu	a5,0(a3)
a0004950:	00170713          	addi	a4,a4,1
a0004954:	01071713          	slli	a4,a4,0x10
a0004958:	00138393          	addi	t2,t2,1
a000495c:	01075713          	srli	a4,a4,0x10
a0004960:	f20794e3          	bnez	a5,a0004888 <bench_bf_run+0xf8>
a0004964:	00012483          	lw	s1,0(sp)
a0004968:	00004797          	auipc	a5,0x4
a000496c:	81c78793          	addi	a5,a5,-2020 # a0008184 <code>
a0004970:	00d7a023          	sw	a3,0(a5)
a0004974:	00048a63          	beqz	s1,a0004988 <bench_bf_run+0x1f8>
a0004978:	00004797          	auipc	a5,0x4
a000497c:	80478793          	addi	a5,a5,-2044 # a000817c <SP>
a0004980:	0077a023          	sw	t2,0(a5)
a0004984:	00712423          	sw	t2,8(sp)
a0004988:	00812783          	lw	a5,8(sp)
a000498c:	f20790e3          	bnez	a5,a00048ac <bench_bf_run+0x11c>
a0004990:	000017b7          	lui	a5,0x1
a0004994:	f0f70ce3          	beq	a4,a5,a00048ac <bench_bf_run+0x11c>
a0004998:	00271713          	slli	a4,a4,0x2
a000499c:	00e60733          	add	a4,a2,a4
a00049a0:	00071023          	sh	zero,0(a4)
a00049a4:	00065783          	lhu	a5,0(a2)
a00049a8:	f00796e3          	bnez	a5,a00048b4 <bench_bf_run+0x124>
a00049ac:	0cc0006f          	j	a0004a78 <bench_bf_run+0x2e8>
a00049b0:	00271793          	slli	a5,a4,0x2
a00049b4:	00f607b3          	add	a5,a2,a5
a00049b8:	00100313          	li	t1,1
a00049bc:	00679023          	sh	t1,0(a5) # 1000 <_rodata_size+0x36c>
a00049c0:	eb1ff06f          	j	a0004870 <bench_bf_run+0xe0>
a00049c4:	00271793          	slli	a5,a4,0x2
a00049c8:	00f607b3          	add	a5,a2,a5
a00049cc:	00200313          	li	t1,2
a00049d0:	00679023          	sh	t1,0(a5)
a00049d4:	e9dff06f          	j	a0004870 <bench_bf_run+0xe0>
a00049d8:	00271793          	slli	a5,a4,0x2
a00049dc:	00f607b3          	add	a5,a2,a5
a00049e0:	00500313          	li	t1,5
a00049e4:	00679023          	sh	t1,0(a5)
a00049e8:	e89ff06f          	j	a0004870 <bench_bf_run+0xe0>
a00049ec:	00271793          	slli	a5,a4,0x2
a00049f0:	00f607b3          	add	a5,a2,a5
a00049f4:	00400313          	li	t1,4
a00049f8:	00679023          	sh	t1,0(a5)
a00049fc:	e75ff06f          	j	a0004870 <bench_bf_run+0xe0>
a0004a00:	00271793          	slli	a5,a4,0x2
a0004a04:	00f607b3          	add	a5,a2,a5
a0004a08:	00600313          	li	t1,6
a0004a0c:	00679023          	sh	t1,0(a5)
a0004a10:	e61ff06f          	j	a0004870 <bench_bf_run+0xe0>
a0004a14:	00271793          	slli	a5,a4,0x2
a0004a18:	00f607b3          	add	a5,a2,a5
a0004a1c:	00300313          	li	t1,3
a0004a20:	00679023          	sh	t1,0(a5)
a0004a24:	e4dff06f          	j	a0004870 <bench_bf_run+0xe0>
a0004a28:	00151793          	slli	a5,a0,0x1
a0004a2c:	00f287b3          	add	a5,t0,a5
a0004a30:	0007d783          	lhu	a5,0(a5)
a0004a34:	08078463          	beqz	a5,a0004abc <bench_bf_run+0x32c>
a0004a38:	00275683          	lhu	a3,2(a4)
a0004a3c:	00168693          	addi	a3,a3,1
a0004a40:	00269713          	slli	a4,a3,0x2
a0004a44:	00e60733          	add	a4,a2,a4
a0004a48:	00075783          	lhu	a5,0(a4)
a0004a4c:	ea079ae3          	bnez	a5,a0004900 <bench_bf_run+0x170>
a0004a50:	00012783          	lw	a5,0(sp)
a0004a54:	00078863          	beqz	a5,a0004a64 <bench_bf_run+0x2d4>
a0004a58:	00003797          	auipc	a5,0x3
a0004a5c:	73478793          	addi	a5,a5,1844 # a000818c <input>
a0004a60:	0077a023          	sw	t2,0(a5)
a0004a64:	00412783          	lw	a5,4(sp)
a0004a68:	00078863          	beqz	a5,a0004a78 <bench_bf_run+0x2e8>
a0004a6c:	00003797          	auipc	a5,0x3
a0004a70:	72478793          	addi	a5,a5,1828 # a0008190 <noutput>
a0004a74:	0087a023          	sw	s0,0(a5)
a0004a78:	01012403          	lw	s0,16(sp)
a0004a7c:	00c12483          	lw	s1,12(sp)
a0004a80:	01410113          	addi	sp,sp,20
a0004a84:	00008067          	ret
a0004a88:	00151793          	slli	a5,a0,0x1
a0004a8c:	00f287b3          	add	a5,t0,a5
a0004a90:	0007d783          	lhu	a5,0(a5)
a0004a94:	02079463          	bnez	a5,a0004abc <bench_bf_run+0x32c>
a0004a98:	00275683          	lhu	a3,2(a4)
a0004a9c:	fa1ff06f          	j	a0004a3c <bench_bf_run+0x2ac>
a0004aa0:	0003c703          	lbu	a4,0(t2)
a0004aa4:	00151793          	slli	a5,a0,0x1
a0004aa8:	00f287b3          	add	a5,t0,a5
a0004aac:	00e79023          	sh	a4,0(a5)
a0004ab0:	00100793          	li	a5,1
a0004ab4:	00138393          	addi	t2,t2,1
a0004ab8:	00f12023          	sw	a5,0(sp)
a0004abc:	00168693          	addi	a3,a3,1
a0004ac0:	00269713          	slli	a4,a3,0x2
a0004ac4:	00e60733          	add	a4,a2,a4
a0004ac8:	00075783          	lhu	a5,0(a4)
a0004acc:	e2079ae3          	bnez	a5,a0004900 <bench_bf_run+0x170>
a0004ad0:	f81ff06f          	j	a0004a50 <bench_bf_run+0x2c0>
a0004ad4:	00151793          	slli	a5,a0,0x1
a0004ad8:	00f287b3          	add	a5,t0,a5
a0004adc:	0007d703          	lhu	a4,0(a5)
a0004ae0:	fff70713          	addi	a4,a4,-1
a0004ae4:	00e79023          	sh	a4,0(a5)
a0004ae8:	fd5ff06f          	j	a0004abc <bench_bf_run+0x32c>
a0004aec:	00151793          	slli	a5,a0,0x1
a0004af0:	00f287b3          	add	a5,t0,a5
a0004af4:	0007d703          	lhu	a4,0(a5)
a0004af8:	00812783          	lw	a5,8(sp)
a0004afc:	00100493          	li	s1,1
a0004b00:	00912223          	sw	s1,4(sp)
a0004b04:	008787b3          	add	a5,a5,s0
a0004b08:	00e78023          	sb	a4,0(a5)
a0004b0c:	00140413          	addi	s0,s0,1 # 1001 <_rodata_size+0x36d>
a0004b10:	fadff06f          	j	a0004abc <bench_bf_run+0x32c>
a0004b14:	00151793          	slli	a5,a0,0x1
a0004b18:	00f287b3          	add	a5,t0,a5
a0004b1c:	0007d703          	lhu	a4,0(a5)
a0004b20:	00170713          	addi	a4,a4,1
a0004b24:	00e79023          	sh	a4,0(a5)
a0004b28:	f95ff06f          	j	a0004abc <bench_bf_run+0x32c>
a0004b2c:	fff50513          	addi	a0,a0,-1
a0004b30:	00168693          	addi	a3,a3,1
a0004b34:	00269713          	slli	a4,a3,0x2
a0004b38:	00e60733          	add	a4,a2,a4
a0004b3c:	00075783          	lhu	a5,0(a4)
a0004b40:	f00788e3          	beqz	a5,a0004a50 <bench_bf_run+0x2c0>
a0004b44:	000014b7          	lui	s1,0x1
a0004b48:	da956ce3          	bltu	a0,s1,a0004900 <bench_bf_run+0x170>
a0004b4c:	f05ff06f          	j	a0004a50 <bench_bf_run+0x2c0>
a0004b50:	00150513          	addi	a0,a0,1
a0004b54:	fddff06f          	j	a0004b30 <bench_bf_run+0x3a0>
a0004b58:	00012483          	lw	s1,0(sp)
a0004b5c:	00030863          	beqz	t1,a0004b6c <bench_bf_run+0x3dc>
a0004b60:	00003797          	auipc	a5,0x3
a0004b64:	62478793          	addi	a5,a5,1572 # a0008184 <code>
a0004b68:	0057a023          	sw	t0,0(a5)
a0004b6c:	d40480e3          	beqz	s1,a00048ac <bench_bf_run+0x11c>
a0004b70:	00003797          	auipc	a5,0x3
a0004b74:	6007a623          	sw	zero,1548(a5) # a000817c <SP>
a0004b78:	d35ff06f          	j	a00048ac <bench_bf_run+0x11c>
a0004b7c:	00012483          	lw	s1,0(sp)
a0004b80:	00030863          	beqz	t1,a0004b90 <bench_bf_run+0x400>
a0004b84:	00003797          	auipc	a5,0x3
a0004b88:	60078793          	addi	a5,a5,1536 # a0008184 <code>
a0004b8c:	0057a023          	sw	t0,0(a5)
a0004b90:	d0048ee3          	beqz	s1,a00048ac <bench_bf_run+0x11c>
a0004b94:	20000793          	li	a5,512
a0004b98:	00003717          	auipc	a4,0x3
a0004b9c:	5e470713          	addi	a4,a4,1508 # a000817c <SP>
a0004ba0:	00f72023          	sw	a5,0(a4)
a0004ba4:	d09ff06f          	j	a00048ac <bench_bf_run+0x11c>
a0004ba8:	00812783          	lw	a5,8(sp)
a0004bac:	00060713          	mv	a4,a2
a0004bb0:	de0788e3          	beqz	a5,a00049a0 <bench_bf_run+0x210>
a0004bb4:	cf9ff06f          	j	a00048ac <bench_bf_run+0x11c>

a0004bb8 <bench_bf_validate>:
a0004bb8:	ff410113          	addi	sp,sp,-12
a0004bbc:	00812223          	sw	s0,4(sp)
a0004bc0:	00003417          	auipc	s0,0x3
a0004bc4:	5d040413          	addi	s0,s0,1488 # a0008190 <noutput>
a0004bc8:	00042583          	lw	a1,0(s0)
a0004bcc:	00003517          	auipc	a0,0x3
a0004bd0:	5c852503          	lw	a0,1480(a0) # a0008194 <output>
a0004bd4:	00112423          	sw	ra,8(sp)
a0004bd8:	00b505b3          	add	a1,a0,a1
a0004bdc:	738000ef          	jal	ra,a0005314 <checksum>
a0004be0:	00042683          	lw	a3,0(s0)
a0004be4:	00003797          	auipc	a5,0x3
a0004be8:	5907a783          	lw	a5,1424(a5) # a0008174 <ARR_SIZE>
a0004bec:	00f68c63          	beq	a3,a5,a0004c04 <bench_bf_validate+0x4c>
a0004bf0:	00812083          	lw	ra,8(sp)
a0004bf4:	00412403          	lw	s0,4(sp)
a0004bf8:	00000513          	li	a0,0
a0004bfc:	00c10113          	addi	sp,sp,12
a0004c00:	00008067          	ret
a0004c04:	00003797          	auipc	a5,0x3
a0004c08:	59c7a783          	lw	a5,1436(a5) # a00081a0 <setting>
a0004c0c:	00c7a783          	lw	a5,12(a5)
a0004c10:	00812083          	lw	ra,8(sp)
a0004c14:	00412403          	lw	s0,4(sp)
a0004c18:	40a78533          	sub	a0,a5,a0
a0004c1c:	00153513          	seqz	a0,a0
a0004c20:	00c10113          	addi	sp,sp,12
a0004c24:	00008067          	ret

a0004c28 <format_time>:
a0004c28:	ff010113          	addi	sp,sp,-16
a0004c2c:	3e800613          	li	a2,1000
a0004c30:	00000693          	li	a3,0
a0004c34:	00112623          	sw	ra,12(sp)
a0004c38:	00812423          	sw	s0,8(sp)
a0004c3c:	00912223          	sw	s1,4(sp)
a0004c40:	00058413          	mv	s0,a1
a0004c44:	00050493          	mv	s1,a0
a0004c48:	57c010ef          	jal	ra,a00061c4 <__umoddi3>
a0004c4c:	00050793          	mv	a5,a0
a0004c50:	00058713          	mv	a4,a1
a0004c54:	3e800613          	li	a2,1000
a0004c58:	00000693          	li	a3,0
a0004c5c:	00048513          	mv	a0,s1
a0004c60:	00040593          	mv	a1,s0
a0004c64:	00078493          	mv	s1,a5
a0004c68:	00070413          	mv	s0,a4
a0004c6c:	550010ef          	jal	ra,a00061bc <__udivdi3>
a0004c70:	00058693          	mv	a3,a1
a0004c74:	00050613          	mv	a2,a0
a0004c78:	00002597          	auipc	a1,0x2
a0004c7c:	68458593          	addi	a1,a1,1668 # a00072fc <r+0x384>
a0004c80:	00003517          	auipc	a0,0x3
a0004c84:	47050513          	addi	a0,a0,1136 # a00080f0 <buf.0>
a0004c88:	094020ef          	jal	ra,a0006d1c <sprintf>
a0004c8c:	fff50513          	addi	a0,a0,-1
a0004c90:	00003797          	auipc	a5,0x3
a0004c94:	46078793          	addi	a5,a5,1120 # a00080f0 <buf.0>
a0004c98:	00a787b3          	add	a5,a5,a0
a0004c9c:	009466b3          	or	a3,s0,s1
a0004ca0:	00f12023          	sw	a5,0(sp)
a0004ca4:	06068063          	beqz	a3,a0004d04 <format_time+0xdc>
a0004ca8:	00a00613          	li	a2,10
a0004cac:	00000693          	li	a3,0
a0004cb0:	00048513          	mv	a0,s1
a0004cb4:	00040593          	mv	a1,s0
a0004cb8:	50c010ef          	jal	ra,a00061c4 <__umoddi3>
a0004cbc:	00012783          	lw	a5,0(sp)
a0004cc0:	03050313          	addi	t1,a0,48
a0004cc4:	00040593          	mv	a1,s0
a0004cc8:	00048513          	mv	a0,s1
a0004ccc:	00a00613          	li	a2,10
a0004cd0:	00000693          	li	a3,0
a0004cd4:	00678023          	sb	t1,0(a5)
a0004cd8:	4e4010ef          	jal	ra,a00061bc <__udivdi3>
a0004cdc:	00012783          	lw	a5,0(sp)
a0004ce0:	00040693          	mv	a3,s0
a0004ce4:	00048613          	mv	a2,s1
a0004ce8:	fff78793          	addi	a5,a5,-1
a0004cec:	00f12023          	sw	a5,0(sp)
a0004cf0:	00050493          	mv	s1,a0
a0004cf4:	00058413          	mv	s0,a1
a0004cf8:	fa0698e3          	bnez	a3,a0004ca8 <format_time+0x80>
a0004cfc:	00900793          	li	a5,9
a0004d00:	fac7e4e3          	bltu	a5,a2,a0004ca8 <format_time+0x80>
a0004d04:	00c12083          	lw	ra,12(sp)
a0004d08:	00812403          	lw	s0,8(sp)
a0004d0c:	00412483          	lw	s1,4(sp)
a0004d10:	00003517          	auipc	a0,0x3
a0004d14:	3e050513          	addi	a0,a0,992 # a00080f0 <buf.0>
a0004d18:	01010113          	addi	sp,sp,16
a0004d1c:	00008067          	ret

a0004d20 <main>:
a0004d20:	fb410113          	addi	sp,sp,-76
a0004d24:	04912023          	sw	s1,64(sp)
a0004d28:	03b10793          	addi	a5,sp,59
a0004d2c:	04112423          	sw	ra,72(sp)
a0004d30:	04812223          	sw	s0,68(sp)
a0004d34:	ff87f493          	andi	s1,a5,-8
a0004d38:	3e050863          	beqz	a0,a0005128 <main+0x408>
a0004d3c:	00003597          	auipc	a1,0x3
a0004d40:	cb058593          	addi	a1,a1,-848 # a00079ec <r+0xa74>
a0004d44:	00050413          	mv	s0,a0
a0004d48:	010020ef          	jal	ra,a0006d58 <strcmp>
a0004d4c:	3c050e63          	beqz	a0,a0005128 <main+0x408>
a0004d50:	00002597          	auipc	a1,0x2
a0004d54:	5f058593          	addi	a1,a1,1520 # a0007340 <r+0x3c8>
a0004d58:	00040513          	mv	a0,s0
a0004d5c:	7fd010ef          	jal	ra,a0006d58 <strcmp>
a0004d60:	00a12e23          	sw	a0,28(sp)
a0004d64:	02050063          	beqz	a0,a0004d84 <main+0x64>
a0004d68:	00002597          	auipc	a1,0x2
a0004d6c:	5e058593          	addi	a1,a1,1504 # a0007348 <r+0x3d0>
a0004d70:	00040513          	mv	a0,s0
a0004d74:	7e5010ef          	jal	ra,a0006d58 <strcmp>
a0004d78:	00100793          	li	a5,1
a0004d7c:	00f12e23          	sw	a5,28(sp)
a0004d80:	42051c63          	bnez	a0,a00051b8 <main+0x498>
a0004d84:	0e5000ef          	jal	ra,a0005668 <ioe_init>
a0004d88:	00040593          	mv	a1,s0
a0004d8c:	00002517          	auipc	a0,0x2
a0004d90:	60c50513          	addi	a0,a0,1548 # a0007398 <r+0x420>
a0004d94:	685010ef          	jal	ra,a0006c18 <printf>
a0004d98:	00048593          	mv	a1,s1
a0004d9c:	00600513          	li	a0,6
a0004da0:	11d000ef          	jal	ra,a00056bc <ioe_read>
a0004da4:	01c12783          	lw	a5,28(sp)
a0004da8:	00012a23          	sw	zero,20(sp)
a0004dac:	00012c23          	sw	zero,24(sp)
a0004db0:	00178713          	addi	a4,a5,1
a0004db4:	0004a783          	lw	a5,0(s1) # 1000 <_rodata_size+0x36c>
a0004db8:	00471713          	slli	a4,a4,0x4
a0004dbc:	ff070693          	addi	a3,a4,-16
a0004dc0:	02f12623          	sw	a5,44(sp)
a0004dc4:	0044a783          	lw	a5,4(s1)
a0004dc8:	00d12223          	sw	a3,4(sp)
a0004dcc:	00470713          	addi	a4,a4,4
a0004dd0:	00100693          	li	a3,1
a0004dd4:	02f12823          	sw	a5,48(sp)
a0004dd8:	02d12023          	sw	a3,32(sp)
a0004ddc:	00003797          	auipc	a5,0x3
a0004de0:	dc078793          	addi	a5,a5,-576 # a0007b9c <benchmarks>
a0004de4:	02012423          	sw	zero,40(sp)
a0004de8:	00e12423          	sw	a4,8(sp)
a0004dec:	00003417          	auipc	s0,0x3
a0004df0:	2fc40413          	addi	s0,s0,764 # a00080e8 <heap>
a0004df4:	03c0006f          	j	a0004e30 <main+0x110>
a0004df8:	00002517          	auipc	a0,0x2
a0004dfc:	5d450513          	addi	a0,a0,1492 # a00073cc <r+0x454>
a0004e00:	00f12023          	sw	a5,0(sp)
a0004e04:	615010ef          	jal	ra,a0006c18 <printf>
a0004e08:	00002597          	auipc	a1,0x2
a0004e0c:	5d058593          	addi	a1,a1,1488 # a00073d8 <r+0x460>
a0004e10:	00002517          	auipc	a0,0x2
a0004e14:	5e050513          	addi	a0,a0,1504 # a00073f0 <r+0x478>
a0004e18:	601010ef          	jal	ra,a0006c18 <printf>
a0004e1c:	00012783          	lw	a5,0(sp)
a0004e20:	05478793          	addi	a5,a5,84
a0004e24:	00003717          	auipc	a4,0x3
a0004e28:	0c070713          	addi	a4,a4,192 # a0007ee4 <lut>
a0004e2c:	20f70863          	beq	a4,a5,a000503c <main+0x31c>
a0004e30:	00412683          	lw	a3,4(sp)
a0004e34:	00812583          	lw	a1,8(sp)
a0004e38:	00042603          	lw	a2,0(s0)
a0004e3c:	00442703          	lw	a4,4(s0)
a0004e40:	00d786b3          	add	a3,a5,a3
a0004e44:	0186a683          	lw	a3,24(a3)
a0004e48:	00f585b3          	add	a1,a1,a5
a0004e4c:	00003517          	auipc	a0,0x3
a0004e50:	34c50513          	addi	a0,a0,844 # a0008198 <current>
a0004e54:	00003317          	auipc	t1,0x3
a0004e58:	34c30313          	addi	t1,t1,844 # a00081a0 <setting>
a0004e5c:	00b32023          	sw	a1,0(t1)
a0004e60:	40c70733          	sub	a4,a4,a2
a0004e64:	00f52023          	sw	a5,0(a0)
a0004e68:	00c7a583          	lw	a1,12(a5)
a0004e6c:	0107a603          	lw	a2,16(a5)
a0004e70:	f8d764e3          	bltu	a4,a3,a0004df8 <main+0xd8>
a0004e74:	00002517          	auipc	a0,0x2
a0004e78:	55850513          	addi	a0,a0,1368 # a00073cc <r+0x454>
a0004e7c:	00f12823          	sw	a5,16(sp)
a0004e80:	599010ef          	jal	ra,a0006c18 <printf>
a0004e84:	00003517          	auipc	a0,0x3
a0004e88:	31450513          	addi	a0,a0,788 # a0008198 <current>
a0004e8c:	00052683          	lw	a3,0(a0)
a0004e90:	00042703          	lw	a4,0(s0)
a0004e94:	00003797          	auipc	a5,0x3
a0004e98:	30878793          	addi	a5,a5,776 # a000819c <hbrk>
a0004e9c:	0006a683          	lw	a3,0(a3)
a0004ea0:	00770713          	addi	a4,a4,7
a0004ea4:	ff877713          	andi	a4,a4,-8
a0004ea8:	00e7a023          	sw	a4,0(a5)
a0004eac:	000680e7          	jalr	a3
a0004eb0:	00048593          	mv	a1,s1
a0004eb4:	00600513          	li	a0,6
a0004eb8:	005000ef          	jal	ra,a00056bc <ioe_read>
a0004ebc:	00003517          	auipc	a0,0x3
a0004ec0:	2dc50513          	addi	a0,a0,732 # a0008198 <current>
a0004ec4:	00052703          	lw	a4,0(a0)
a0004ec8:	0004a283          	lw	t0,0(s1)
a0004ecc:	0044a303          	lw	t1,4(s1)
a0004ed0:	00472703          	lw	a4,4(a4)
a0004ed4:	00512623          	sw	t0,12(sp)
a0004ed8:	00612023          	sw	t1,0(sp)
a0004edc:	000700e7          	jalr	a4
a0004ee0:	00048593          	mv	a1,s1
a0004ee4:	00600513          	li	a0,6
a0004ee8:	7d4000ef          	jal	ra,a00056bc <ioe_read>
a0004eec:	00003517          	auipc	a0,0x3
a0004ef0:	2ac50513          	addi	a0,a0,684 # a0008198 <current>
a0004ef4:	0004a703          	lw	a4,0(s1)
a0004ef8:	00c12283          	lw	t0,12(sp)
a0004efc:	00052603          	lw	a2,0(a0)
a0004f00:	00012303          	lw	t1,0(sp)
a0004f04:	0044a683          	lw	a3,4(s1)
a0004f08:	405707b3          	sub	a5,a4,t0
a0004f0c:	00862603          	lw	a2,8(a2)
a0004f10:	00f73733          	sltu	a4,a4,a5
a0004f14:	406686b3          	sub	a3,a3,t1
a0004f18:	00f12623          	sw	a5,12(sp)
a0004f1c:	40e687b3          	sub	a5,a3,a4
a0004f20:	00f12023          	sw	a5,0(sp)
a0004f24:	000600e7          	jalr	a2
a0004f28:	01012783          	lw	a5,16(sp)
a0004f2c:	20050a63          	beqz	a0,a0005140 <main+0x420>
a0004f30:	00a12823          	sw	a0,16(sp)
a0004f34:	00002517          	auipc	a0,0x2
a0004f38:	4c850513          	addi	a0,a0,1224 # a00073fc <r+0x484>
a0004f3c:	02f12223          	sw	a5,36(sp)
a0004f40:	4d9010ef          	jal	ra,a0006c18 <printf>
a0004f44:	01412783          	lw	a5,20(sp)
a0004f48:	00c12703          	lw	a4,12(sp)
a0004f4c:	01812503          	lw	a0,24(sp)
a0004f50:	00012603          	lw	a2,0(sp)
a0004f54:	00e786b3          	add	a3,a5,a4
a0004f58:	01012703          	lw	a4,16(sp)
a0004f5c:	00f6b5b3          	sltu	a1,a3,a5
a0004f60:	00c50633          	add	a2,a0,a2
a0004f64:	00d12a23          	sw	a3,20(sp)
a0004f68:	00c586b3          	add	a3,a1,a2
a0004f6c:	00177713          	andi	a4,a4,1
a0004f70:	00d12c23          	sw	a3,24(sp)
a0004f74:	02412783          	lw	a5,36(sp)
a0004f78:	20070263          	beqz	a4,a000517c <main+0x45c>
a0004f7c:	00002517          	auipc	a0,0x2
a0004f80:	48450513          	addi	a0,a0,1156 # a0007400 <r+0x488>
a0004f84:	00f12823          	sw	a5,16(sp)
a0004f88:	491010ef          	jal	ra,a0006c18 <printf>
a0004f8c:	00c12783          	lw	a5,12(sp)
a0004f90:	00012603          	lw	a2,0(sp)
a0004f94:	02012223          	sw	zero,36(sp)
a0004f98:	00c7e733          	or	a4,a5,a2
a0004f9c:	01012783          	lw	a5,16(sp)
a0004fa0:	04070663          	beqz	a4,a0004fec <main+0x2cc>
a0004fa4:	00f12823          	sw	a5,16(sp)
a0004fa8:	00003797          	auipc	a5,0x3
a0004fac:	1f878793          	addi	a5,a5,504 # a00081a0 <setting>
a0004fb0:	0007a703          	lw	a4,0(a5)
a0004fb4:	00018637          	lui	a2,0x18
a0004fb8:	6a060613          	addi	a2,a2,1696 # 186a0 <_text_size+0x11898>
a0004fbc:	00872503          	lw	a0,8(a4)
a0004fc0:	00000693          	li	a3,0
a0004fc4:	00000593          	li	a1,0
a0004fc8:	511000ef          	jal	ra,a0005cd8 <__muldi3>
a0004fcc:	00c12603          	lw	a2,12(sp)
a0004fd0:	00012683          	lw	a3,0(sp)
a0004fd4:	1e8010ef          	jal	ra,a00061bc <__udivdi3>
a0004fd8:	02812703          	lw	a4,40(sp)
a0004fdc:	02a12223          	sw	a0,36(sp)
a0004fe0:	00a707b3          	add	a5,a4,a0
a0004fe4:	02f12423          	sw	a5,40(sp)
a0004fe8:	01012783          	lw	a5,16(sp)
a0004fec:	00002517          	auipc	a0,0x2
a0004ff0:	6c450513          	addi	a0,a0,1732 # a00076b0 <r+0x738>
a0004ff4:	00f12823          	sw	a5,16(sp)
a0004ff8:	421010ef          	jal	ra,a0006c18 <printf>
a0004ffc:	01c12703          	lw	a4,28(sp)
a0005000:	01012783          	lw	a5,16(sp)
a0005004:	e0070ee3          	beqz	a4,a0004e20 <main+0x100>
a0005008:	00012583          	lw	a1,0(sp)
a000500c:	00c12503          	lw	a0,12(sp)
a0005010:	c19ff0ef          	jal	ra,a0004c28 <format_time>
a0005014:	02412603          	lw	a2,36(sp)
a0005018:	00050593          	mv	a1,a0
a000501c:	00002517          	auipc	a0,0x2
a0005020:	3fc50513          	addi	a0,a0,1020 # a0007418 <r+0x4a0>
a0005024:	3f5010ef          	jal	ra,a0006c18 <printf>
a0005028:	01012783          	lw	a5,16(sp)
a000502c:	00003717          	auipc	a4,0x3
a0005030:	eb870713          	addi	a4,a4,-328 # a0007ee4 <lut>
a0005034:	05478793          	addi	a5,a5,84
a0005038:	def71ce3          	bne	a4,a5,a0004e30 <main+0x110>
a000503c:	00048593          	mv	a1,s1
a0005040:	00600513          	li	a0,6
a0005044:	678000ef          	jal	ra,a00056bc <ioe_read>
a0005048:	0004a783          	lw	a5,0(s1)
a000504c:	02c12703          	lw	a4,44(sp)
a0005050:	0044a403          	lw	s0,4(s1)
a0005054:	00002517          	auipc	a0,0x2
a0005058:	3dc50513          	addi	a0,a0,988 # a0007430 <r+0x4b8>
a000505c:	40e784b3          	sub	s1,a5,a4
a0005060:	03012703          	lw	a4,48(sp)
a0005064:	0097b7b3          	sltu	a5,a5,s1
a0005068:	40e40433          	sub	s0,s0,a4
a000506c:	40f40433          	sub	s0,s0,a5
a0005070:	3a9010ef          	jal	ra,a0006c18 <printf>
a0005074:	02012783          	lw	a5,32(sp)
a0005078:	00002597          	auipc	a1,0x2
a000507c:	29058593          	addi	a1,a1,656 # a0007308 <r+0x390>
a0005080:	10078e63          	beqz	a5,a000519c <main+0x47c>
a0005084:	00002517          	auipc	a0,0x2
a0005088:	3e050513          	addi	a0,a0,992 # a0007464 <r+0x4ec>
a000508c:	38d010ef          	jal	ra,a0006c18 <printf>
a0005090:	01c12703          	lw	a4,28(sp)
a0005094:	00100793          	li	a5,1
a0005098:	10e7d863          	bge	a5,a4,a00051a8 <main+0x488>
a000509c:	02812503          	lw	a0,40(sp)
a00050a0:	00a00593          	li	a1,10
a00050a4:	365000ef          	jal	ra,a0005c08 <__hidden___udivsi3>
a00050a8:	00050593          	mv	a1,a0
a00050ac:	00002517          	auipc	a0,0x2
a00050b0:	3c850513          	addi	a0,a0,968 # a0007474 <r+0x4fc>
a00050b4:	365010ef          	jal	ra,a0006c18 <printf>
a00050b8:	000185b7          	lui	a1,0x18
a00050bc:	00002617          	auipc	a2,0x2
a00050c0:	3cc60613          	addi	a2,a2,972 # a0007488 <r+0x510>
a00050c4:	6a058593          	addi	a1,a1,1696 # 186a0 <_text_size+0x11898>
a00050c8:	00002517          	auipc	a0,0x2
a00050cc:	3d450513          	addi	a0,a0,980 # a000749c <r+0x524>
a00050d0:	349010ef          	jal	ra,a0006c18 <printf>
a00050d4:	01812583          	lw	a1,24(sp)
a00050d8:	01412503          	lw	a0,20(sp)
a00050dc:	b4dff0ef          	jal	ra,a0004c28 <format_time>
a00050e0:	00050593          	mv	a1,a0
a00050e4:	00002517          	auipc	a0,0x2
a00050e8:	3e050513          	addi	a0,a0,992 # a00074c4 <r+0x54c>
a00050ec:	32d010ef          	jal	ra,a0006c18 <printf>
a00050f0:	00040593          	mv	a1,s0
a00050f4:	00048513          	mv	a0,s1
a00050f8:	b31ff0ef          	jal	ra,a0004c28 <format_time>
a00050fc:	00050593          	mv	a1,a0
a0005100:	00002517          	auipc	a0,0x2
a0005104:	3d850513          	addi	a0,a0,984 # a00074d8 <r+0x560>
a0005108:	311010ef          	jal	ra,a0006c18 <printf>
a000510c:	02012783          	lw	a5,32(sp)
a0005110:	04812083          	lw	ra,72(sp)
a0005114:	04412403          	lw	s0,68(sp)
a0005118:	04012483          	lw	s1,64(sp)
a000511c:	0017c513          	xori	a0,a5,1
a0005120:	04c10113          	addi	sp,sp,76
a0005124:	00008067          	ret
a0005128:	00002517          	auipc	a0,0x2
a000512c:	1f050513          	addi	a0,a0,496 # a0007318 <r+0x3a0>
a0005130:	2e9010ef          	jal	ra,a0006c18 <printf>
a0005134:	00002417          	auipc	s0,0x2
a0005138:	1d040413          	addi	s0,s0,464 # a0007304 <r+0x38c>
a000513c:	c15ff06f          	j	a0004d50 <main+0x30>
a0005140:	00002517          	auipc	a0,0x2
a0005144:	3ac50513          	addi	a0,a0,940 # a00074ec <r+0x574>
a0005148:	00f12823          	sw	a5,16(sp)
a000514c:	2cd010ef          	jal	ra,a0006c18 <printf>
a0005150:	01412783          	lw	a5,20(sp)
a0005154:	00c12703          	lw	a4,12(sp)
a0005158:	00012683          	lw	a3,0(sp)
a000515c:	00e78733          	add	a4,a5,a4
a0005160:	00f73633          	sltu	a2,a4,a5
a0005164:	01812783          	lw	a5,24(sp)
a0005168:	00e12a23          	sw	a4,20(sp)
a000516c:	00d786b3          	add	a3,a5,a3
a0005170:	00d607b3          	add	a5,a2,a3
a0005174:	00f12c23          	sw	a5,24(sp)
a0005178:	01012783          	lw	a5,16(sp)
a000517c:	00002517          	auipc	a0,0x2
a0005180:	29050513          	addi	a0,a0,656 # a000740c <r+0x494>
a0005184:	00f12823          	sw	a5,16(sp)
a0005188:	291010ef          	jal	ra,a0006c18 <printf>
a000518c:	01012783          	lw	a5,16(sp)
a0005190:	02012023          	sw	zero,32(sp)
a0005194:	02012223          	sw	zero,36(sp)
a0005198:	e55ff06f          	j	a0004fec <main+0x2cc>
a000519c:	00002597          	auipc	a1,0x2
a00051a0:	17458593          	addi	a1,a1,372 # a0007310 <r+0x398>
a00051a4:	ee1ff06f          	j	a0005084 <main+0x364>
a00051a8:	00002517          	auipc	a0,0x2
a00051ac:	50850513          	addi	a0,a0,1288 # a00076b0 <r+0x738>
a00051b0:	269010ef          	jal	ra,a0006c18 <printf>
a00051b4:	f21ff06f          	j	a00050d4 <main+0x3b4>
a00051b8:	00002597          	auipc	a1,0x2
a00051bc:	14c58593          	addi	a1,a1,332 # a0007304 <r+0x38c>
a00051c0:	00040513          	mv	a0,s0
a00051c4:	395010ef          	jal	ra,a0006d58 <strcmp>
a00051c8:	00200793          	li	a5,2
a00051cc:	00f12e23          	sw	a5,28(sp)
a00051d0:	ba050ae3          	beqz	a0,a0004d84 <main+0x64>
a00051d4:	00002597          	auipc	a1,0x2
a00051d8:	17c58593          	addi	a1,a1,380 # a0007350 <r+0x3d8>
a00051dc:	00040513          	mv	a0,s0
a00051e0:	379010ef          	jal	ra,a0006d58 <strcmp>
a00051e4:	00300793          	li	a5,3
a00051e8:	00f12e23          	sw	a5,28(sp)
a00051ec:	b8050ce3          	beqz	a0,a0004d84 <main+0x64>
a00051f0:	00040593          	mv	a1,s0
a00051f4:	00002517          	auipc	a0,0x2
a00051f8:	16450513          	addi	a0,a0,356 # a0007358 <r+0x3e0>
a00051fc:	21d010ef          	jal	ra,a0006c18 <printf>
a0005200:	00100513          	li	a0,1
a0005204:	3c8000ef          	jal	ra,a00055cc <halt>

a0005208 <bench_alloc>:
a0005208:	00003597          	auipc	a1,0x3
a000520c:	f9458593          	addi	a1,a1,-108 # a000819c <hbrk>
a0005210:	0005a683          	lw	a3,0(a1)
a0005214:	00750713          	addi	a4,a0,7
a0005218:	00003797          	auipc	a5,0x3
a000521c:	ed078793          	addi	a5,a5,-304 # a00080e8 <heap>
a0005220:	ff410113          	addi	sp,sp,-12
a0005224:	ff877713          	andi	a4,a4,-8
a0005228:	0007a603          	lw	a2,0(a5)
a000522c:	00112423          	sw	ra,8(sp)
a0005230:	00e68733          	add	a4,a3,a4
a0005234:	00e5a023          	sw	a4,0(a1)
a0005238:	04c76863          	bltu	a4,a2,a0005288 <bench_alloc+0x80>
a000523c:	0047a783          	lw	a5,4(a5)
a0005240:	04f77463          	bgeu	a4,a5,a0005288 <bench_alloc+0x80>
a0005244:	00068793          	mv	a5,a3
a0005248:	00d70e63          	beq	a4,a3,a0005264 <bench_alloc+0x5c>
a000524c:	00000513          	li	a0,0
a0005250:	00000593          	li	a1,0
a0005254:	00a7a023          	sw	a0,0(a5)
a0005258:	00b7a223          	sw	a1,4(a5)
a000525c:	00878793          	addi	a5,a5,8
a0005260:	fef716e3          	bne	a4,a5,a000524c <bench_alloc+0x44>
a0005264:	00003797          	auipc	a5,0x3
a0005268:	f3c7a783          	lw	a5,-196(a5) # a00081a0 <setting>
a000526c:	0047a783          	lw	a5,4(a5)
a0005270:	40c70733          	sub	a4,a4,a2
a0005274:	02e7ea63          	bltu	a5,a4,a00052a8 <bench_alloc+0xa0>
a0005278:	00812083          	lw	ra,8(sp)
a000527c:	00068513          	mv	a0,a3
a0005280:	00c10113          	addi	sp,sp,12
a0005284:	00008067          	ret
a0005288:	0a100613          	li	a2,161
a000528c:	00002597          	auipc	a1,0x2
a0005290:	26458593          	addi	a1,a1,612 # a00074f0 <r+0x578>
a0005294:	00002517          	auipc	a0,0x2
a0005298:	bc850513          	addi	a0,a0,-1080 # a0006e5c <_etext+0x54>
a000529c:	17d010ef          	jal	ra,a0006c18 <printf>
a00052a0:	00100513          	li	a0,1
a00052a4:	328000ef          	jal	ra,a00055cc <halt>
a00052a8:	0a500613          	li	a2,165
a00052ac:	fe1ff06f          	j	a000528c <bench_alloc+0x84>

a00052b0 <bench_srand>:
a00052b0:	01151513          	slli	a0,a0,0x11
a00052b4:	01155513          	srli	a0,a0,0x11
a00052b8:	00003797          	auipc	a5,0x3
a00052bc:	e2a7a623          	sw	a0,-468(a5) # a00080e4 <seed>
a00052c0:	00008067          	ret

a00052c4 <bench_rand>:
a00052c4:	00003717          	auipc	a4,0x3
a00052c8:	e2070713          	addi	a4,a4,-480 # a00080e4 <seed>
a00052cc:	00072683          	lw	a3,0(a4)
a00052d0:	00169793          	slli	a5,a3,0x1
a00052d4:	00d787b3          	add	a5,a5,a3
a00052d8:	00279793          	slli	a5,a5,0x2
a00052dc:	00d787b3          	add	a5,a5,a3
a00052e0:	00479793          	slli	a5,a5,0x4
a00052e4:	00d787b3          	add	a5,a5,a3
a00052e8:	00879793          	slli	a5,a5,0x8
a00052ec:	40d787b3          	sub	a5,a5,a3
a00052f0:	00279793          	slli	a5,a5,0x2
a00052f4:	00d787b3          	add	a5,a5,a3
a00052f8:	0026a6b7          	lui	a3,0x26a
a00052fc:	ec368693          	addi	a3,a3,-317 # 269ec3 <_text_size+0x2630bb>
a0005300:	00d787b3          	add	a5,a5,a3
a0005304:	00179513          	slli	a0,a5,0x1
a0005308:	00f72023          	sw	a5,0(a4)
a000530c:	01155513          	srli	a0,a0,0x11
a0005310:	00008067          	ret

a0005314 <checksum>:
a0005314:	00450613          	addi	a2,a0,4
a0005318:	0ab67863          	bgeu	a2,a1,a00053c8 <checksum+0xb4>
a000531c:	811ca7b7          	lui	a5,0x811ca
a0005320:	dc578793          	addi	a5,a5,-571 # 811c9dc5 <_heap_end+0xe0fc1c0d>
a0005324:	00050693          	mv	a3,a0
a0005328:	0006c703          	lbu	a4,0(a3)
a000532c:	00168693          	addi	a3,a3,1
a0005330:	00f74733          	xor	a4,a4,a5
a0005334:	00f71793          	slli	a5,a4,0xf
a0005338:	00e787b3          	add	a5,a5,a4
a000533c:	00279793          	slli	a5,a5,0x2
a0005340:	40e787b3          	sub	a5,a5,a4
a0005344:	00379793          	slli	a5,a5,0x3
a0005348:	00e787b3          	add	a5,a5,a4
a000534c:	00279793          	slli	a5,a5,0x2
a0005350:	00e787b3          	add	a5,a5,a4
a0005354:	00279793          	slli	a5,a5,0x2
a0005358:	40e787b3          	sub	a5,a5,a4
a000535c:	fcd616e3          	bne	a2,a3,a0005328 <checksum+0x14>
a0005360:	00460613          	addi	a2,a2,4
a0005364:	00450513          	addi	a0,a0,4
a0005368:	fab66ee3          	bltu	a2,a1,a0005324 <checksum+0x10>
a000536c:	00571693          	slli	a3,a4,0x5
a0005370:	40e686b3          	sub	a3,a3,a4
a0005374:	00369693          	slli	a3,a3,0x3
a0005378:	00e686b3          	add	a3,a3,a4
a000537c:	00669793          	slli	a5,a3,0x6
a0005380:	40d787b3          	sub	a5,a5,a3
a0005384:	00279793          	slli	a5,a5,0x2
a0005388:	40e787b3          	sub	a5,a5,a4
a000538c:	00379793          	slli	a5,a5,0x3
a0005390:	40e787b3          	sub	a5,a5,a4
a0005394:	00379793          	slli	a5,a5,0x3
a0005398:	40e787b3          	sub	a5,a5,a4
a000539c:	00279713          	slli	a4,a5,0x2
a00053a0:	00e787b3          	add	a5,a5,a4
a00053a4:	4077d713          	srai	a4,a5,0x7
a00053a8:	00f747b3          	xor	a5,a4,a5
a00053ac:	00379713          	slli	a4,a5,0x3
a00053b0:	00f70733          	add	a4,a4,a5
a00053b4:	41175793          	srai	a5,a4,0x11
a00053b8:	00e7c7b3          	xor	a5,a5,a4
a00053bc:	00579513          	slli	a0,a5,0x5
a00053c0:	00f50533          	add	a0,a0,a5
a00053c4:	00008067          	ret
a00053c8:	a6f00537          	lui	a0,0xa6f00
a00053cc:	79e50513          	addi	a0,a0,1950 # a6f0079e <_heap_end+0x6cf85e6>
a00053d0:	00008067          	ret

a00053d4 <myqsort>:
a00053d4:	00060313          	mv	t1,a2
a00053d8:	0cc5d663          	bge	a1,a2,a00054a4 <myqsort+0xd0>
a00053dc:	fec10113          	addi	sp,sp,-20
a00053e0:	00112823          	sw	ra,16(sp)
a00053e4:	00812623          	sw	s0,12(sp)
a00053e8:	00912423          	sw	s1,8(sp)
a00053ec:	00231493          	slli	s1,t1,0x2
a00053f0:	009504b3          	add	s1,a0,s1
a00053f4:	00259793          	slli	a5,a1,0x2
a00053f8:	00f50633          	add	a2,a0,a5
a00053fc:	00158713          	addi	a4,a1,1
a0005400:	00062683          	lw	a3,0(a2)
a0005404:	08675263          	bge	a4,t1,a0005488 <myqsort+0xb4>
a0005408:	00478793          	addi	a5,a5,4
a000540c:	00f507b3          	add	a5,a0,a5
a0005410:	00058413          	mv	s0,a1
a0005414:	0007a283          	lw	t0,0(a5)
a0005418:	00d2de63          	bge	t0,a3,a0005434 <myqsort+0x60>
a000541c:	00140413          	addi	s0,s0,1
a0005420:	00241713          	slli	a4,s0,0x2
a0005424:	00e50733          	add	a4,a0,a4
a0005428:	00072383          	lw	t2,0(a4)
a000542c:	00572023          	sw	t0,0(a4)
a0005430:	0077a023          	sw	t2,0(a5)
a0005434:	00478793          	addi	a5,a5,4
a0005438:	fcf49ee3          	bne	s1,a5,a0005414 <myqsort+0x40>
a000543c:	00241793          	slli	a5,s0,0x2
a0005440:	00062683          	lw	a3,0(a2)
a0005444:	00f507b3          	add	a5,a0,a5
a0005448:	0007a703          	lw	a4,0(a5)
a000544c:	00d7a023          	sw	a3,0(a5)
a0005450:	00612223          	sw	t1,4(sp)
a0005454:	00e62023          	sw	a4,0(a2)
a0005458:	00040613          	mv	a2,s0
a000545c:	00a12023          	sw	a0,0(sp)
a0005460:	f75ff0ef          	jal	ra,a00053d4 <myqsort>
a0005464:	00412303          	lw	t1,4(sp)
a0005468:	00140593          	addi	a1,s0,1
a000546c:	00012503          	lw	a0,0(sp)
a0005470:	f865c2e3          	blt	a1,t1,a00053f4 <myqsort+0x20>
a0005474:	01012083          	lw	ra,16(sp)
a0005478:	00c12403          	lw	s0,12(sp)
a000547c:	00812483          	lw	s1,8(sp)
a0005480:	01410113          	addi	sp,sp,20
a0005484:	00008067          	ret
a0005488:	00058313          	mv	t1,a1
a000548c:	f6b5c0e3          	blt	a1,a1,a00053ec <myqsort+0x18>
a0005490:	01012083          	lw	ra,16(sp)
a0005494:	00c12403          	lw	s0,12(sp)
a0005498:	00812483          	lw	s1,8(sp)
a000549c:	01410113          	addi	sp,sp,20
a00054a0:	00008067          	ret
a00054a4:	00008067          	ret

a00054a8 <bench_qsort_prepare>:
a00054a8:	ff410113          	addi	sp,sp,-12
a00054ac:	00100513          	li	a0,1
a00054b0:	00112423          	sw	ra,8(sp)
a00054b4:	00812223          	sw	s0,4(sp)
a00054b8:	00912023          	sw	s1,0(sp)
a00054bc:	df5ff0ef          	jal	ra,a00052b0 <bench_srand>
a00054c0:	00003797          	auipc	a5,0x3
a00054c4:	ce07a783          	lw	a5,-800(a5) # a00081a0 <setting>
a00054c8:	0007a783          	lw	a5,0(a5)
a00054cc:	00003697          	auipc	a3,0x3
a00054d0:	cd868693          	addi	a3,a3,-808 # a00081a4 <N>
a00054d4:	00279513          	slli	a0,a5,0x2
a00054d8:	00f6a023          	sw	a5,0(a3)
a00054dc:	d2dff0ef          	jal	ra,a0005208 <bench_alloc>
a00054e0:	00003697          	auipc	a3,0x3
a00054e4:	cc468693          	addi	a3,a3,-828 # a00081a4 <N>
a00054e8:	0006a783          	lw	a5,0(a3)
a00054ec:	00003617          	auipc	a2,0x3
a00054f0:	cbc60613          	addi	a2,a2,-836 # a00081a8 <data>
a00054f4:	00a62023          	sw	a0,0(a2)
a00054f8:	04f05463          	blez	a5,a0005540 <bench_qsort_prepare+0x98>
a00054fc:	00000493          	li	s1,0
a0005500:	dc5ff0ef          	jal	ra,a00052c4 <bench_rand>
a0005504:	00050413          	mv	s0,a0
a0005508:	dbdff0ef          	jal	ra,a00052c4 <bench_rand>
a000550c:	00003617          	auipc	a2,0x3
a0005510:	c9c60613          	addi	a2,a2,-868 # a00081a8 <data>
a0005514:	00062783          	lw	a5,0(a2)
a0005518:	00003697          	auipc	a3,0x3
a000551c:	c8c68693          	addi	a3,a3,-884 # a00081a4 <N>
a0005520:	00249593          	slli	a1,s1,0x2
a0005524:	01041413          	slli	s0,s0,0x10
a0005528:	0006a703          	lw	a4,0(a3)
a000552c:	00b787b3          	add	a5,a5,a1
a0005530:	00a46433          	or	s0,s0,a0
a0005534:	0087a023          	sw	s0,0(a5)
a0005538:	00148493          	addi	s1,s1,1
a000553c:	fce4c2e3          	blt	s1,a4,a0005500 <bench_qsort_prepare+0x58>
a0005540:	00812083          	lw	ra,8(sp)
a0005544:	00412403          	lw	s0,4(sp)
a0005548:	00012483          	lw	s1,0(sp)
a000554c:	00c10113          	addi	sp,sp,12
a0005550:	00008067          	ret

a0005554 <bench_qsort_run>:
a0005554:	00003617          	auipc	a2,0x3
a0005558:	c5062603          	lw	a2,-944(a2) # a00081a4 <N>
a000555c:	00000593          	li	a1,0
a0005560:	00003517          	auipc	a0,0x3
a0005564:	c4852503          	lw	a0,-952(a0) # a00081a8 <data>
a0005568:	e6dff06f          	j	a00053d4 <myqsort>

a000556c <bench_qsort_validate>:
a000556c:	00003597          	auipc	a1,0x3
a0005570:	c385a583          	lw	a1,-968(a1) # a00081a4 <N>
a0005574:	00003517          	auipc	a0,0x3
a0005578:	c3452503          	lw	a0,-972(a0) # a00081a8 <data>
a000557c:	00259593          	slli	a1,a1,0x2
a0005580:	ff410113          	addi	sp,sp,-12
a0005584:	00b505b3          	add	a1,a0,a1
a0005588:	00112423          	sw	ra,8(sp)
a000558c:	d89ff0ef          	jal	ra,a0005314 <checksum>
a0005590:	00003797          	auipc	a5,0x3
a0005594:	c107a783          	lw	a5,-1008(a5) # a00081a0 <setting>
a0005598:	00c7a783          	lw	a5,12(a5)
a000559c:	00812083          	lw	ra,8(sp)
a00055a0:	40a78533          	sub	a0,a5,a0
a00055a4:	00153513          	seqz	a0,a0
a00055a8:	00c10113          	addi	sp,sp,12
a00055ac:	00008067          	ret

a00055b0 <putch>:
a00055b0:	100007b7          	lui	a5,0x10000
a00055b4:	00a78023          	sb	a0,0(a5) # 10000000 <_end+0xffe000>
a00055b8:	10000737          	lui	a4,0x10000
a00055bc:	00574783          	lbu	a5,5(a4) # 10000005 <_end+0xffe005>
a00055c0:	0207f793          	andi	a5,a5,32
a00055c4:	fe078ce3          	beqz	a5,a00055bc <putch+0xc>
a00055c8:	00008067          	ret

a00055cc <halt>:
a00055cc:	00050513          	mv	a0,a0
a00055d0:	00100073          	ebreak
a00055d4:	0000006f          	j	a00055d4 <halt+0x8>

a00055d8 <__am_timer_config>:
a00055d8:	00100793          	li	a5,1
a00055dc:	00f50023          	sb	a5,0(a0)
a00055e0:	00f500a3          	sb	a5,1(a0)
a00055e4:	00008067          	ret

a00055e8 <__am_input_config>:
a00055e8:	00100793          	li	a5,1
a00055ec:	00f50023          	sb	a5,0(a0)
a00055f0:	00008067          	ret

a00055f4 <__am_uart_config>:
a00055f4:	00100793          	li	a5,1
a00055f8:	00f50023          	sb	a5,0(a0)
a00055fc:	00008067          	ret

a0005600 <fail>:
a0005600:	ff410113          	addi	sp,sp,-12
a0005604:	00812223          	sw	s0,4(sp)
a0005608:	00112423          	sw	ra,8(sp)
a000560c:	00002417          	auipc	s0,0x2
a0005610:	02c40413          	addi	s0,s0,44 # a0007638 <r+0x6c0>
a0005614:	04100513          	li	a0,65
a0005618:	00140413          	addi	s0,s0,1
a000561c:	f95ff0ef          	jal	ra,a00055b0 <putch>
a0005620:	00044503          	lbu	a0,0(s0)
a0005624:	fe051ae3          	bnez	a0,a0005618 <fail+0x18>
a0005628:	00002417          	auipc	s0,0x2
a000562c:	01c40413          	addi	s0,s0,28 # a0007644 <r+0x6cc>
a0005630:	06100513          	li	a0,97
a0005634:	00140413          	addi	s0,s0,1
a0005638:	f79ff0ef          	jal	ra,a00055b0 <putch>
a000563c:	00044503          	lbu	a0,0(s0)
a0005640:	fe051ae3          	bnez	a0,a0005634 <fail+0x34>
a0005644:	00002417          	auipc	s0,0x2
a0005648:	01c40413          	addi	s0,s0,28 # a0007660 <r+0x6e8>
a000564c:	02000513          	li	a0,32
a0005650:	00140413          	addi	s0,s0,1
a0005654:	f5dff0ef          	jal	ra,a00055b0 <putch>
a0005658:	00044503          	lbu	a0,0(s0)
a000565c:	fe051ae3          	bnez	a0,a0005650 <fail+0x50>
a0005660:	00100513          	li	a0,1
a0005664:	f69ff0ef          	jal	ra,a00055cc <halt>

a0005668 <ioe_init>:
a0005668:	ff410113          	addi	sp,sp,-12
a000566c:	00112423          	sw	ra,8(sp)
a0005670:	00003797          	auipc	a5,0x3
a0005674:	87478793          	addi	a5,a5,-1932 # a0007ee4 <lut>
a0005678:	00003697          	auipc	a3,0x3
a000567c:	a6c68693          	addi	a3,a3,-1428 # a00080e4 <seed>
a0005680:	00000617          	auipc	a2,0x0
a0005684:	f8060613          	addi	a2,a2,-128 # a0005600 <fail>
a0005688:	00c0006f          	j	a0005694 <ioe_init+0x2c>
a000568c:	00478793          	addi	a5,a5,4
a0005690:	00d78c63          	beq	a5,a3,a00056a8 <ioe_init+0x40>
a0005694:	0007a703          	lw	a4,0(a5)
a0005698:	fe071ae3          	bnez	a4,a000568c <ioe_init+0x24>
a000569c:	00c7a023          	sw	a2,0(a5)
a00056a0:	00478793          	addi	a5,a5,4
a00056a4:	fed798e3          	bne	a5,a3,a0005694 <ioe_init+0x2c>
a00056a8:	030000ef          	jal	ra,a00056d8 <__am_timer_init>
a00056ac:	00812083          	lw	ra,8(sp)
a00056b0:	00100513          	li	a0,1
a00056b4:	00c10113          	addi	sp,sp,12
a00056b8:	00008067          	ret

a00056bc <ioe_read>:
a00056bc:	00251513          	slli	a0,a0,0x2
a00056c0:	00003797          	auipc	a5,0x3
a00056c4:	82478793          	addi	a5,a5,-2012 # a0007ee4 <lut>
a00056c8:	00a787b3          	add	a5,a5,a0
a00056cc:	0007a783          	lw	a5,0(a5)
a00056d0:	00058513          	mv	a0,a1
a00056d4:	00078067          	jr	a5

a00056d8 <__am_timer_init>:
a00056d8:	020007b7          	lui	a5,0x2000
a00056dc:	0047a683          	lw	a3,4(a5) # 2000004 <_text_size+0x1ff91fc>
a00056e0:	0007a703          	lw	a4,0(a5)
a00056e4:	00003797          	auipc	a5,0x3
a00056e8:	acc78793          	addi	a5,a5,-1332 # a00081b0 <boot_time>
a00056ec:	00d7a223          	sw	a3,4(a5)
a00056f0:	00e7a023          	sw	a4,0(a5)
a00056f4:	00008067          	ret

a00056f8 <__am_timer_uptime>:
a00056f8:	020006b7          	lui	a3,0x2000
a00056fc:	00003617          	auipc	a2,0x3
a0005700:	ab460613          	addi	a2,a2,-1356 # a00081b0 <boot_time>
a0005704:	0046a783          	lw	a5,4(a3) # 2000004 <_text_size+0x1ff91fc>
a0005708:	00062703          	lw	a4,0(a2)
a000570c:	0006a683          	lw	a3,0(a3)
a0005710:	00462603          	lw	a2,4(a2)
a0005714:	40e68733          	sub	a4,a3,a4
a0005718:	00e6b6b3          	sltu	a3,a3,a4
a000571c:	40c787b3          	sub	a5,a5,a2
a0005720:	40d787b3          	sub	a5,a5,a3
a0005724:	00e52023          	sw	a4,0(a0)
a0005728:	00f52223          	sw	a5,4(a0)
a000572c:	00008067          	ret

a0005730 <__am_timer_rtc>:
a0005730:	76c00793          	li	a5,1900
a0005734:	00052a23          	sw	zero,20(a0)
a0005738:	00052823          	sw	zero,16(a0)
a000573c:	00052623          	sw	zero,12(a0)
a0005740:	00052423          	sw	zero,8(a0)
a0005744:	00052223          	sw	zero,4(a0)
a0005748:	00f52023          	sw	a5,0(a0)
a000574c:	00008067          	ret

a0005750 <__am_gpu_config>:
a0005750:	00002797          	auipc	a5,0x2
a0005754:	f6478793          	addi	a5,a5,-156 # a00076b4 <r+0x73c>
a0005758:	0007a603          	lw	a2,0(a5)
a000575c:	0047a683          	lw	a3,4(a5)
a0005760:	0087a703          	lw	a4,8(a5)
a0005764:	00c7a783          	lw	a5,12(a5)
a0005768:	00c52023          	sw	a2,0(a0)
a000576c:	00d52223          	sw	a3,4(a0)
a0005770:	00e52423          	sw	a4,8(a0)
a0005774:	00f52623          	sw	a5,12(a0)
a0005778:	00008067          	ret

a000577c <__am_gpu_fbdraw>:
a000577c:	ff010113          	addi	sp,sp,-16
a0005780:	00452303          	lw	t1,4(a0)
a0005784:	00852783          	lw	a5,8(a0)
a0005788:	00812623          	sw	s0,12(sp)
a000578c:	01052403          	lw	s0,16(a0)
a0005790:	00052383          	lw	t2,0(a0)
a0005794:	00912423          	sw	s1,8(sp)
a0005798:	00c52483          	lw	s1,12(a0)
a000579c:	00830433          	add	s0,t1,s0
a00057a0:	00f12223          	sw	a5,4(sp)
a00057a4:	00938633          	add	a2,t2,s1
a00057a8:	04837e63          	bgeu	t1,s0,a0005804 <__am_gpu_fbdraw+0x88>
a00057ac:	00000293          	li	t0,0
a00057b0:	21000537          	lui	a0,0x21000
a00057b4:	00a31593          	slli	a1,t1,0xa
a00057b8:	04c3f263          	bgeu	t2,a2,a00057fc <__am_gpu_fbdraw+0x80>
a00057bc:	00412783          	lw	a5,4(sp)
a00057c0:	00229693          	slli	a3,t0,0x2
a00057c4:	00038713          	mv	a4,t2
a00057c8:	00d786b3          	add	a3,a5,a3
a00057cc:	00612023          	sw	t1,0(sp)
a00057d0:	3ff77793          	andi	a5,a4,1023
a00057d4:	0006a303          	lw	t1,0(a3)
a00057d8:	00b7e7b3          	or	a5,a5,a1
a00057dc:	00279793          	slli	a5,a5,0x2
a00057e0:	00f507b3          	add	a5,a0,a5
a00057e4:	0067a023          	sw	t1,0(a5)
a00057e8:	00170713          	addi	a4,a4,1
a00057ec:	00468693          	addi	a3,a3,4
a00057f0:	fec760e3          	bltu	a4,a2,a00057d0 <__am_gpu_fbdraw+0x54>
a00057f4:	00012303          	lw	t1,0(sp)
a00057f8:	005482b3          	add	t0,s1,t0
a00057fc:	00130313          	addi	t1,t1,1
a0005800:	fa836ae3          	bltu	t1,s0,a00057b4 <__am_gpu_fbdraw+0x38>
a0005804:	00c12403          	lw	s0,12(sp)
a0005808:	00812483          	lw	s1,8(sp)
a000580c:	01010113          	addi	sp,sp,16
a0005810:	00008067          	ret

a0005814 <__am_gpu_status>:
a0005814:	00100793          	li	a5,1
a0005818:	00f50023          	sb	a5,0(a0) # 21000000 <_end+0x11ffe000>
a000581c:	00008067          	ret

a0005820 <__am_input_keybrd>:
a0005820:	00300693          	li	a3,3
a0005824:	00000393          	li	t2,0
a0005828:	00000793          	li	a5,0
a000582c:	10011337          	lui	t1,0x10011
a0005830:	0f000593          	li	a1,240
a0005834:	0e000293          	li	t0,224
a0005838:	00034703          	lbu	a4,0(t1) # 10011000 <_end+0x100f000>
a000583c:	00879793          	slli	a5,a5,0x8
a0005840:	0ff77613          	zext.b	a2,a4
a0005844:	00f767b3          	or	a5,a4,a5
a0005848:	06b70c63          	beq	a4,a1,a00058c0 <__am_input_keybrd+0xa0>
a000584c:	06561e63          	bne	a2,t0,a00058c8 <__am_input_keybrd+0xa8>
a0005850:	fff68693          	addi	a3,a3,-1
a0005854:	fe0692e3          	bnez	a3,a0005838 <__am_input_keybrd+0x18>
a0005858:	ff410113          	addi	sp,sp,-12
a000585c:	00812223          	sw	s0,4(sp)
a0005860:	00112423          	sw	ra,8(sp)
a0005864:	00002417          	auipc	s0,0x2
a0005868:	dd440413          	addi	s0,s0,-556 # a0007638 <r+0x6c0>
a000586c:	04100513          	li	a0,65
a0005870:	00140413          	addi	s0,s0,1
a0005874:	d3dff0ef          	jal	ra,a00055b0 <putch>
a0005878:	00044503          	lbu	a0,0(s0)
a000587c:	fe051ae3          	bnez	a0,a0005870 <__am_input_keybrd+0x50>
a0005880:	00002417          	auipc	s0,0x2
a0005884:	e4440413          	addi	s0,s0,-444 # a00076c4 <r+0x74c>
a0005888:	06b00513          	li	a0,107
a000588c:	00140413          	addi	s0,s0,1
a0005890:	d21ff0ef          	jal	ra,a00055b0 <putch>
a0005894:	00044503          	lbu	a0,0(s0)
a0005898:	fe051ae3          	bnez	a0,a000588c <__am_input_keybrd+0x6c>
a000589c:	00002417          	auipc	s0,0x2
a00058a0:	e4040413          	addi	s0,s0,-448 # a00076dc <r+0x764>
a00058a4:	02000513          	li	a0,32
a00058a8:	00140413          	addi	s0,s0,1
a00058ac:	d05ff0ef          	jal	ra,a00055b0 <putch>
a00058b0:	00044503          	lbu	a0,0(s0)
a00058b4:	fe051ae3          	bnez	a0,a00058a8 <__am_input_keybrd+0x88>
a00058b8:	00100513          	li	a0,1
a00058bc:	d11ff0ef          	jal	ra,a00055cc <halt>
a00058c0:	00100393          	li	t2,1
a00058c4:	f8dff06f          	j	a0005850 <__am_input_keybrd+0x30>
a00058c8:	04038663          	beqz	t2,a0005914 <__am_input_keybrd+0xf4>
a00058cc:	0ff7f793          	zext.b	a5,a5
a00058d0:	08300713          	li	a4,131
a00058d4:	0af76063          	bltu	a4,a5,a0005974 <__am_input_keybrd+0x154>
a00058d8:	08078e63          	beqz	a5,a0005974 <__am_input_keybrd+0x154>
a00058dc:	08300713          	li	a4,131
a00058e0:	08f76a63          	bltu	a4,a5,a0005974 <__am_input_keybrd+0x154>
a00058e4:	00002717          	auipc	a4,0x2
a00058e8:	e4c70713          	addi	a4,a4,-436 # a0007730 <r+0x7b8>
a00058ec:	00279793          	slli	a5,a5,0x2
a00058f0:	00e787b3          	add	a5,a5,a4
a00058f4:	0007a783          	lw	a5,0(a5)
a00058f8:	00e787b3          	add	a5,a5,a4
a00058fc:	00078067          	jr	a5
a0005900:	03300693          	li	a3,51
a0005904:	00d52223          	sw	a3,4(a0)
a0005908:	0013c393          	xori	t2,t2,1
a000590c:	00750023          	sb	t2,0(a0)
a0005910:	00008067          	ret
a0005914:	08300713          	li	a4,131
a0005918:	fcf770e3          	bgeu	a4,a5,a00058d8 <__am_input_keybrd+0xb8>
a000591c:	0000e737          	lui	a4,0xe
a0005920:	07d70693          	addi	a3,a4,125 # e07d <_text_size+0x7275>
a0005924:	04f6e863          	bltu	a3,a5,a0005974 <__am_input_keybrd+0x154>
a0005928:	06870693          	addi	a3,a4,104
a000592c:	02f6fa63          	bgeu	a3,a5,a0005960 <__am_input_keybrd+0x140>
a0005930:	ffff2737          	lui	a4,0xffff2
a0005934:	f9770713          	addi	a4,a4,-105 # ffff1f97 <_heap_end+0x5fde9ddf>
a0005938:	00e787b3          	add	a5,a5,a4
a000593c:	01400713          	li	a4,20
a0005940:	02f76a63          	bltu	a4,a5,a0005974 <__am_input_keybrd+0x154>
a0005944:	00002717          	auipc	a4,0x2
a0005948:	ffc70713          	addi	a4,a4,-4 # a0007940 <r+0x9c8>
a000594c:	00279793          	slli	a5,a5,0x2
a0005950:	00e787b3          	add	a5,a5,a4
a0005954:	0007a783          	lw	a5,0(a5)
a0005958:	00e787b3          	add	a5,a5,a4
a000595c:	00078067          	jr	a5
a0005960:	01170693          	addi	a3,a4,17
a0005964:	00d78e63          	beq	a5,a3,a0005980 <__am_input_keybrd+0x160>
a0005968:	01470713          	addi	a4,a4,20
a000596c:	04800693          	li	a3,72
a0005970:	f8e78ae3          	beq	a5,a4,a0005904 <__am_input_keybrd+0xe4>
a0005974:	00052223          	sw	zero,4(a0)
a0005978:	00000393          	li	t2,0
a000597c:	f91ff06f          	j	a000590c <__am_input_keybrd+0xec>
a0005980:	04700693          	li	a3,71
a0005984:	f81ff06f          	j	a0005904 <__am_input_keybrd+0xe4>
a0005988:	04a00693          	li	a3,74
a000598c:	f79ff06f          	j	a0005904 <__am_input_keybrd+0xe4>
a0005990:	04900693          	li	a3,73
a0005994:	f71ff06f          	j	a0005904 <__am_input_keybrd+0xe4>
a0005998:	05200693          	li	a3,82
a000599c:	f69ff06f          	j	a0005904 <__am_input_keybrd+0xe4>
a00059a0:	05100693          	li	a3,81
a00059a4:	f61ff06f          	j	a0005904 <__am_input_keybrd+0xe4>
a00059a8:	04c00693          	li	a3,76
a00059ac:	f59ff06f          	j	a0005904 <__am_input_keybrd+0xe4>
a00059b0:	04e00693          	li	a3,78
a00059b4:	f51ff06f          	j	a0005904 <__am_input_keybrd+0xe4>
a00059b8:	04d00693          	li	a3,77
a00059bc:	f49ff06f          	j	a0005904 <__am_input_keybrd+0xe4>
a00059c0:	04f00693          	li	a3,79
a00059c4:	f41ff06f          	j	a0005904 <__am_input_keybrd+0xe4>
a00059c8:	04b00693          	li	a3,75
a00059cc:	f39ff06f          	j	a0005904 <__am_input_keybrd+0xe4>
a00059d0:	05000693          	li	a3,80
a00059d4:	f31ff06f          	j	a0005904 <__am_input_keybrd+0xe4>
a00059d8:	00800693          	li	a3,8
a00059dc:	f29ff06f          	j	a0005904 <__am_input_keybrd+0xe4>
a00059e0:	00c00693          	li	a3,12
a00059e4:	f21ff06f          	j	a0005904 <__am_input_keybrd+0xe4>
a00059e8:	04400693          	li	a3,68
a00059ec:	f19ff06f          	j	a0005904 <__am_input_keybrd+0xe4>
a00059f0:	01b00693          	li	a3,27
a00059f4:	f11ff06f          	j	a0005904 <__am_input_keybrd+0xe4>
a00059f8:	02900693          	li	a3,41
a00059fc:	f09ff06f          	j	a0005904 <__am_input_keybrd+0xe4>
a0005a00:	02800693          	li	a3,40
a0005a04:	f01ff06f          	j	a0005904 <__am_input_keybrd+0xe4>
a0005a08:	03600693          	li	a3,54
a0005a0c:	ef9ff06f          	j	a0005904 <__am_input_keybrd+0xe4>
a0005a10:	04200693          	li	a3,66
a0005a14:	ef1ff06f          	j	a0005904 <__am_input_keybrd+0xe4>
a0005a18:	02a00693          	li	a3,42
a0005a1c:	ee9ff06f          	j	a0005904 <__am_input_keybrd+0xe4>
a0005a20:	01a00693          	li	a3,26
a0005a24:	ee1ff06f          	j	a0005904 <__am_input_keybrd+0xe4>
a0005a28:	02700693          	li	a3,39
a0005a2c:	ed9ff06f          	j	a0005904 <__am_input_keybrd+0xe4>
a0005a30:	01900693          	li	a3,25
a0005a34:	ed1ff06f          	j	a0005904 <__am_input_keybrd+0xe4>
a0005a38:	02600693          	li	a3,38
a0005a3c:	ec9ff06f          	j	a0005904 <__am_input_keybrd+0xe4>
a0005a40:	03400693          	li	a3,52
a0005a44:	ec1ff06f          	j	a0005904 <__am_input_keybrd+0xe4>
a0005a48:	04100693          	li	a3,65
a0005a4c:	eb9ff06f          	j	a0005904 <__am_input_keybrd+0xe4>
a0005a50:	04000693          	li	a3,64
a0005a54:	eb1ff06f          	j	a0005904 <__am_input_keybrd+0xe4>
a0005a58:	01700693          	li	a3,23
a0005a5c:	ea9ff06f          	j	a0005904 <__am_input_keybrd+0xe4>
a0005a60:	01800693          	li	a3,24
a0005a64:	ea1ff06f          	j	a0005904 <__am_input_keybrd+0xe4>
a0005a68:	02500693          	li	a3,37
a0005a6c:	e99ff06f          	j	a0005904 <__am_input_keybrd+0xe4>
a0005a70:	02400693          	li	a3,36
a0005a74:	e91ff06f          	j	a0005904 <__am_input_keybrd+0xe4>
a0005a78:	03200693          	li	a3,50
a0005a7c:	e89ff06f          	j	a0005904 <__am_input_keybrd+0xe4>
a0005a80:	03f00693          	li	a3,63
a0005a84:	e81ff06f          	j	a0005904 <__am_input_keybrd+0xe4>
a0005a88:	01600693          	li	a3,22
a0005a8c:	e79ff06f          	j	a0005904 <__am_input_keybrd+0xe4>
a0005a90:	01500693          	li	a3,21
a0005a94:	e71ff06f          	j	a0005904 <__am_input_keybrd+0xe4>
a0005a98:	02300693          	li	a3,35
a0005a9c:	e69ff06f          	j	a0005904 <__am_input_keybrd+0xe4>
a0005aa0:	03100693          	li	a3,49
a0005aa4:	e61ff06f          	j	a0005904 <__am_input_keybrd+0xe4>
a0005aa8:	03e00693          	li	a3,62
a0005aac:	e59ff06f          	j	a0005904 <__am_input_keybrd+0xe4>
a0005ab0:	01400693          	li	a3,20
a0005ab4:	e51ff06f          	j	a0005904 <__am_input_keybrd+0xe4>
a0005ab8:	02200693          	li	a3,34
a0005abc:	e49ff06f          	j	a0005904 <__am_input_keybrd+0xe4>
a0005ac0:	02f00693          	li	a3,47
a0005ac4:	e41ff06f          	j	a0005904 <__am_input_keybrd+0xe4>
a0005ac8:	03000693          	li	a3,48
a0005acc:	e39ff06f          	j	a0005904 <__am_input_keybrd+0xe4>
a0005ad0:	03c00693          	li	a3,60
a0005ad4:	e31ff06f          	j	a0005904 <__am_input_keybrd+0xe4>
a0005ad8:	03d00693          	li	a3,61
a0005adc:	e29ff06f          	j	a0005904 <__am_input_keybrd+0xe4>
a0005ae0:	01300693          	li	a3,19
a0005ae4:	e21ff06f          	j	a0005904 <__am_input_keybrd+0xe4>
a0005ae8:	02000693          	li	a3,32
a0005aec:	e19ff06f          	j	a0005904 <__am_input_keybrd+0xe4>
a0005af0:	02100693          	li	a3,33
a0005af4:	e11ff06f          	j	a0005904 <__am_input_keybrd+0xe4>
a0005af8:	02e00693          	li	a3,46
a0005afc:	e09ff06f          	j	a0005904 <__am_input_keybrd+0xe4>
a0005b00:	03b00693          	li	a3,59
a0005b04:	e01ff06f          	j	a0005904 <__am_input_keybrd+0xe4>
a0005b08:	04600693          	li	a3,70
a0005b0c:	df9ff06f          	j	a0005904 <__am_input_keybrd+0xe4>
a0005b10:	01100693          	li	a3,17
a0005b14:	df1ff06f          	j	a0005904 <__am_input_keybrd+0xe4>
a0005b18:	01200693          	li	a3,18
a0005b1c:	de9ff06f          	j	a0005904 <__am_input_keybrd+0xe4>
a0005b20:	01f00693          	li	a3,31
a0005b24:	de1ff06f          	j	a0005904 <__am_input_keybrd+0xe4>
a0005b28:	02d00693          	li	a3,45
a0005b2c:	dd9ff06f          	j	a0005904 <__am_input_keybrd+0xe4>
a0005b30:	03900693          	li	a3,57
a0005b34:	dd1ff06f          	j	a0005904 <__am_input_keybrd+0xe4>
a0005b38:	03a00693          	li	a3,58
a0005b3c:	dc9ff06f          	j	a0005904 <__am_input_keybrd+0xe4>
a0005b40:	01000693          	li	a3,16
a0005b44:	dc1ff06f          	j	a0005904 <__am_input_keybrd+0xe4>
a0005b48:	01e00693          	li	a3,30
a0005b4c:	db9ff06f          	j	a0005904 <__am_input_keybrd+0xe4>
a0005b50:	02b00693          	li	a3,43
a0005b54:	db1ff06f          	j	a0005904 <__am_input_keybrd+0xe4>
a0005b58:	02c00693          	li	a3,44
a0005b5c:	da9ff06f          	j	a0005904 <__am_input_keybrd+0xe4>
a0005b60:	03800693          	li	a3,56
a0005b64:	da1ff06f          	j	a0005904 <__am_input_keybrd+0xe4>
a0005b68:	00f00693          	li	a3,15
a0005b6c:	d99ff06f          	j	a0005904 <__am_input_keybrd+0xe4>
a0005b70:	01d00693          	li	a3,29
a0005b74:	d91ff06f          	j	a0005904 <__am_input_keybrd+0xe4>
a0005b78:	04300693          	li	a3,67
a0005b7c:	d89ff06f          	j	a0005904 <__am_input_keybrd+0xe4>
a0005b80:	03700693          	li	a3,55
a0005b84:	d81ff06f          	j	a0005904 <__am_input_keybrd+0xe4>
a0005b88:	04500693          	li	a3,69
a0005b8c:	d79ff06f          	j	a0005904 <__am_input_keybrd+0xe4>
a0005b90:	00e00693          	li	a3,14
a0005b94:	d71ff06f          	j	a0005904 <__am_input_keybrd+0xe4>
a0005b98:	01c00693          	li	a3,28
a0005b9c:	d69ff06f          	j	a0005904 <__am_input_keybrd+0xe4>
a0005ba0:	00500693          	li	a3,5
a0005ba4:	d61ff06f          	j	a0005904 <__am_input_keybrd+0xe4>
a0005ba8:	00700693          	li	a3,7
a0005bac:	d59ff06f          	j	a0005904 <__am_input_keybrd+0xe4>
a0005bb0:	00900693          	li	a3,9
a0005bb4:	d51ff06f          	j	a0005904 <__am_input_keybrd+0xe4>
a0005bb8:	00b00693          	li	a3,11
a0005bbc:	d49ff06f          	j	a0005904 <__am_input_keybrd+0xe4>
a0005bc0:	00d00693          	li	a3,13
a0005bc4:	d41ff06f          	j	a0005904 <__am_input_keybrd+0xe4>
a0005bc8:	00300693          	li	a3,3
a0005bcc:	d39ff06f          	j	a0005904 <__am_input_keybrd+0xe4>
a0005bd0:	00200693          	li	a3,2
a0005bd4:	d31ff06f          	j	a0005904 <__am_input_keybrd+0xe4>
a0005bd8:	00400693          	li	a3,4
a0005bdc:	d29ff06f          	j	a0005904 <__am_input_keybrd+0xe4>
a0005be0:	00600693          	li	a3,6
a0005be4:	d21ff06f          	j	a0005904 <__am_input_keybrd+0xe4>
a0005be8:	00a00693          	li	a3,10
a0005bec:	d19ff06f          	j	a0005904 <__am_input_keybrd+0xe4>
a0005bf0:	00100693          	li	a3,1
a0005bf4:	d11ff06f          	j	a0005904 <__am_input_keybrd+0xe4>
a0005bf8:	03500693          	li	a3,53
a0005bfc:	d09ff06f          	j	a0005904 <__am_input_keybrd+0xe4>

a0005c00 <__divsi3>:
a0005c00:	06054063          	bltz	a0,a0005c60 <__umodsi3+0x10>
a0005c04:	0605c663          	bltz	a1,a0005c70 <__umodsi3+0x20>

a0005c08 <__hidden___udivsi3>:
a0005c08:	00058613          	mv	a2,a1
a0005c0c:	00050593          	mv	a1,a0
a0005c10:	fff00513          	li	a0,-1
a0005c14:	02060c63          	beqz	a2,a0005c4c <__hidden___udivsi3+0x44>
a0005c18:	00100693          	li	a3,1
a0005c1c:	00b67a63          	bgeu	a2,a1,a0005c30 <__hidden___udivsi3+0x28>
a0005c20:	00c05863          	blez	a2,a0005c30 <__hidden___udivsi3+0x28>
a0005c24:	00161613          	slli	a2,a2,0x1
a0005c28:	00169693          	slli	a3,a3,0x1
a0005c2c:	feb66ae3          	bltu	a2,a1,a0005c20 <__hidden___udivsi3+0x18>
a0005c30:	00000513          	li	a0,0
a0005c34:	00c5e663          	bltu	a1,a2,a0005c40 <__hidden___udivsi3+0x38>
a0005c38:	40c585b3          	sub	a1,a1,a2
a0005c3c:	00d56533          	or	a0,a0,a3
a0005c40:	0016d693          	srli	a3,a3,0x1
a0005c44:	00165613          	srli	a2,a2,0x1
a0005c48:	fe0696e3          	bnez	a3,a0005c34 <__hidden___udivsi3+0x2c>
a0005c4c:	00008067          	ret

a0005c50 <__umodsi3>:
a0005c50:	00008293          	mv	t0,ra
a0005c54:	fb5ff0ef          	jal	ra,a0005c08 <__hidden___udivsi3>
a0005c58:	00058513          	mv	a0,a1
a0005c5c:	00028067          	jr	t0
a0005c60:	40a00533          	neg	a0,a0
a0005c64:	00b04863          	bgtz	a1,a0005c74 <__umodsi3+0x24>
a0005c68:	40b005b3          	neg	a1,a1
a0005c6c:	f9dff06f          	j	a0005c08 <__hidden___udivsi3>
a0005c70:	40b005b3          	neg	a1,a1
a0005c74:	00008293          	mv	t0,ra
a0005c78:	f91ff0ef          	jal	ra,a0005c08 <__hidden___udivsi3>
a0005c7c:	40a00533          	neg	a0,a0
a0005c80:	00028067          	jr	t0

a0005c84 <__modsi3>:
a0005c84:	00008293          	mv	t0,ra
a0005c88:	0005ca63          	bltz	a1,a0005c9c <__modsi3+0x18>
a0005c8c:	00054c63          	bltz	a0,a0005ca4 <__modsi3+0x20>
a0005c90:	f79ff0ef          	jal	ra,a0005c08 <__hidden___udivsi3>
a0005c94:	00058513          	mv	a0,a1
a0005c98:	00028067          	jr	t0
a0005c9c:	40b005b3          	neg	a1,a1
a0005ca0:	fe0558e3          	bgez	a0,a0005c90 <__modsi3+0xc>
a0005ca4:	40a00533          	neg	a0,a0
a0005ca8:	f61ff0ef          	jal	ra,a0005c08 <__hidden___udivsi3>
a0005cac:	40b00533          	neg	a0,a1
a0005cb0:	00028067          	jr	t0

a0005cb4 <__mulsi3>:
a0005cb4:	00050613          	mv	a2,a0
a0005cb8:	00000513          	li	a0,0
a0005cbc:	0015f693          	andi	a3,a1,1
a0005cc0:	00068463          	beqz	a3,a0005cc8 <__mulsi3+0x14>
a0005cc4:	00c50533          	add	a0,a0,a2
a0005cc8:	0015d593          	srli	a1,a1,0x1
a0005ccc:	00161613          	slli	a2,a2,0x1
a0005cd0:	fe0596e3          	bnez	a1,a0005cbc <__mulsi3+0x8>
a0005cd4:	00008067          	ret

a0005cd8 <__muldi3>:
a0005cd8:	fe810113          	addi	sp,sp,-24
a0005cdc:	00050793          	mv	a5,a0
a0005ce0:	00a12423          	sw	a0,8(sp)
a0005ce4:	00b12023          	sw	a1,0(sp)
a0005ce8:	00d12223          	sw	a3,4(sp)
a0005cec:	00112a23          	sw	ra,20(sp)
a0005cf0:	00078693          	mv	a3,a5
a0005cf4:	00812823          	sw	s0,16(sp)
a0005cf8:	00912623          	sw	s1,12(sp)
a0005cfc:	00060513          	mv	a0,a2
a0005d00:	00060713          	mv	a4,a2
a0005d04:	00000793          	li	a5,0
a0005d08:	00000593          	li	a1,0
a0005d0c:	00000313          	li	t1,0
a0005d10:	00668633          	add	a2,a3,t1
a0005d14:	00177393          	andi	t2,a4,1
a0005d18:	00f58433          	add	s0,a1,a5
a0005d1c:	01f6d293          	srli	t0,a3,0x1f
a0005d20:	00175713          	srli	a4,a4,0x1
a0005d24:	006634b3          	sltu	s1,a2,t1
a0005d28:	00179793          	slli	a5,a5,0x1
a0005d2c:	00038663          	beqz	t2,a0005d38 <__muldi3+0x60>
a0005d30:	008485b3          	add	a1,s1,s0
a0005d34:	00060313          	mv	t1,a2
a0005d38:	00169693          	slli	a3,a3,0x1
a0005d3c:	0057e7b3          	or	a5,a5,t0
a0005d40:	fc0718e3          	bnez	a4,a0005d10 <__muldi3+0x38>
a0005d44:	00012703          	lw	a4,0(sp)
a0005d48:	00058793          	mv	a5,a1
a0005d4c:	00070863          	beqz	a4,a0005d5c <__muldi3+0x84>
a0005d50:	00070593          	mv	a1,a4
a0005d54:	f61ff0ef          	jal	ra,a0005cb4 <__mulsi3>
a0005d58:	00a787b3          	add	a5,a5,a0
a0005d5c:	00412703          	lw	a4,4(sp)
a0005d60:	00070a63          	beqz	a4,a0005d74 <__muldi3+0x9c>
a0005d64:	00812503          	lw	a0,8(sp)
a0005d68:	00070593          	mv	a1,a4
a0005d6c:	f49ff0ef          	jal	ra,a0005cb4 <__mulsi3>
a0005d70:	00f507b3          	add	a5,a0,a5
a0005d74:	01412083          	lw	ra,20(sp)
a0005d78:	01012403          	lw	s0,16(sp)
a0005d7c:	00c12483          	lw	s1,12(sp)
a0005d80:	00030513          	mv	a0,t1
a0005d84:	00078593          	mv	a1,a5
a0005d88:	01810113          	addi	sp,sp,24
a0005d8c:	00008067          	ret

a0005d90 <__am_uart_rx>:
a0005d90:	100006b7          	lui	a3,0x10000
a0005d94:	0056c783          	lbu	a5,5(a3) # 10000005 <_end+0xffe005>
a0005d98:	0ff00713          	li	a4,255
a0005d9c:	0017f793          	andi	a5,a5,1
a0005da0:	00078663          	beqz	a5,a0005dac <__am_uart_rx+0x1c>
a0005da4:	0006c703          	lbu	a4,0(a3)
a0005da8:	0ff77713          	zext.b	a4,a4
a0005dac:	00e50023          	sb	a4,0(a0)
a0005db0:	00008067          	ret

a0005db4 <__udivmoddi4>:
a0005db4:	fe010113          	addi	sp,sp,-32
a0005db8:	00912a23          	sw	s1,20(sp)
a0005dbc:	00112e23          	sw	ra,28(sp)
a0005dc0:	00812c23          	sw	s0,24(sp)
a0005dc4:	00e12223          	sw	a4,4(sp)
a0005dc8:	00050313          	mv	t1,a0
a0005dcc:	00060493          	mv	s1,a2
a0005dd0:	04059663          	bnez	a1,a0005e1c <__udivmoddi4+0x68>
a0005dd4:	20069463          	bnez	a3,a0005fdc <__udivmoddi4+0x228>
a0005dd8:	00070413          	mv	s0,a4
a0005ddc:	00070e63          	beqz	a4,a0005df8 <__udivmoddi4+0x44>
a0005de0:	00048593          	mv	a1,s1
a0005de4:	00a12023          	sw	a0,0(sp)
a0005de8:	e69ff0ef          	jal	ra,a0005c50 <__umodsi3>
a0005dec:	00012303          	lw	t1,0(sp)
a0005df0:	00a42023          	sw	a0,0(s0)
a0005df4:	00042223          	sw	zero,4(s0)
a0005df8:	00048593          	mv	a1,s1
a0005dfc:	00030513          	mv	a0,t1
a0005e00:	e09ff0ef          	jal	ra,a0005c08 <__hidden___udivsi3>
a0005e04:	00000593          	li	a1,0
a0005e08:	01c12083          	lw	ra,28(sp)
a0005e0c:	01812403          	lw	s0,24(sp)
a0005e10:	01412483          	lw	s1,20(sp)
a0005e14:	02010113          	addi	sp,sp,32
a0005e18:	00008067          	ret
a0005e1c:	00058793          	mv	a5,a1
a0005e20:	08061263          	bnez	a2,a0005ea4 <__udivmoddi4+0xf0>
a0005e24:	24068263          	beqz	a3,a0006068 <__udivmoddi4+0x2b4>
a0005e28:	2c050a63          	beqz	a0,a00060fc <__udivmoddi4+0x348>
a0005e2c:	fff68613          	addi	a2,a3,-1
a0005e30:	00d675b3          	and	a1,a2,a3
a0005e34:	32058463          	beqz	a1,a000615c <__udivmoddi4+0x3a8>
a0005e38:	00a12623          	sw	a0,12(sp)
a0005e3c:	00068513          	mv	a0,a3
a0005e40:	00f12823          	sw	a5,16(sp)
a0005e44:	00f12023          	sw	a5,0(sp)
a0005e48:	00d12423          	sw	a3,8(sp)
a0005e4c:	3ac000ef          	jal	ra,a00061f8 <__clzsi2>
a0005e50:	00012703          	lw	a4,0(sp)
a0005e54:	00050413          	mv	s0,a0
a0005e58:	00070513          	mv	a0,a4
a0005e5c:	39c000ef          	jal	ra,a00061f8 <__clzsi2>
a0005e60:	40a40533          	sub	a0,s0,a0
a0005e64:	01e00613          	li	a2,30
a0005e68:	00012703          	lw	a4,0(sp)
a0005e6c:	00812683          	lw	a3,8(sp)
a0005e70:	00c12303          	lw	t1,12(sp)
a0005e74:	01012783          	lw	a5,16(sp)
a0005e78:	1ea66a63          	bltu	a2,a0,a000606c <__udivmoddi4+0x2b8>
a0005e7c:	00150393          	addi	t2,a0,1
a0005e80:	02000613          	li	a2,32
a0005e84:	40760633          	sub	a2,a2,t2
a0005e88:	00c712b3          	sll	t0,a4,a2
a0005e8c:	007355b3          	srl	a1,t1,t2
a0005e90:	007757b3          	srl	a5,a4,t2
a0005e94:	00c31533          	sll	a0,t1,a2
a0005e98:	00b2e733          	or	a4,t0,a1
a0005e9c:	00000413          	li	s0,0
a0005ea0:	0780006f          	j	a0005f18 <__udivmoddi4+0x164>
a0005ea4:	16068263          	beqz	a3,a0006008 <__udivmoddi4+0x254>
a0005ea8:	00a12423          	sw	a0,8(sp)
a0005eac:	00068513          	mv	a0,a3
a0005eb0:	00b12623          	sw	a1,12(sp)
a0005eb4:	00b12023          	sw	a1,0(sp)
a0005eb8:	00d12823          	sw	a3,16(sp)
a0005ebc:	33c000ef          	jal	ra,a00061f8 <__clzsi2>
a0005ec0:	00012703          	lw	a4,0(sp)
a0005ec4:	00050413          	mv	s0,a0
a0005ec8:	00070513          	mv	a0,a4
a0005ecc:	32c000ef          	jal	ra,a00061f8 <__clzsi2>
a0005ed0:	40a40533          	sub	a0,s0,a0
a0005ed4:	01f00613          	li	a2,31
a0005ed8:	00812303          	lw	t1,8(sp)
a0005edc:	00c12783          	lw	a5,12(sp)
a0005ee0:	18a66663          	bltu	a2,a0,a000606c <__udivmoddi4+0x2b8>
a0005ee4:	00150393          	addi	t2,a0,1
a0005ee8:	02000793          	li	a5,32
a0005eec:	00012703          	lw	a4,0(sp)
a0005ef0:	01012683          	lw	a3,16(sp)
a0005ef4:	00030513          	mv	a0,t1
a0005ef8:	28f38a63          	beq	t2,a5,a000618c <__udivmoddi4+0x3d8>
a0005efc:	40778633          	sub	a2,a5,t2
a0005f00:	007355b3          	srl	a1,t1,t2
a0005f04:	00c71333          	sll	t1,a4,a2
a0005f08:	007757b3          	srl	a5,a4,t2
a0005f0c:	00c51533          	sll	a0,a0,a2
a0005f10:	00b36733          	or	a4,t1,a1
a0005f14:	00000413          	li	s0,0
a0005f18:	00068613          	mv	a2,a3
a0005f1c:	00012023          	sw	zero,0(sp)
a0005f20:	00078693          	mv	a3,a5
a0005f24:	00060793          	mv	a5,a2
a0005f28:	01f55593          	srli	a1,a0,0x1f
a0005f2c:	00171613          	slli	a2,a4,0x1
a0005f30:	00b66633          	or	a2,a2,a1
a0005f34:	01f75713          	srli	a4,a4,0x1f
a0005f38:	00169693          	slli	a3,a3,0x1
a0005f3c:	00e6e6b3          	or	a3,a3,a4
a0005f40:	40c48733          	sub	a4,s1,a2
a0005f44:	00e4b333          	sltu	t1,s1,a4
a0005f48:	40d785b3          	sub	a1,a5,a3
a0005f4c:	406585b3          	sub	a1,a1,t1
a0005f50:	00173713          	seqz	a4,a4
a0005f54:	40e585b3          	sub	a1,a1,a4
a0005f58:	41f5d313          	srai	t1,a1,0x1f
a0005f5c:	00937733          	and	a4,t1,s1
a0005f60:	00f37333          	and	t1,t1,a5
a0005f64:	406686b3          	sub	a3,a3,t1
a0005f68:	00012303          	lw	t1,0(sp)
a0005f6c:	40e60733          	sub	a4,a2,a4
a0005f70:	01f5d593          	srli	a1,a1,0x1f
a0005f74:	01f45293          	srli	t0,s0,0x1f
a0005f78:	00151513          	slli	a0,a0,0x1
a0005f7c:	00141413          	slli	s0,s0,0x1
a0005f80:	00e63633          	sltu	a2,a2,a4
a0005f84:	fff38393          	addi	t2,t2,-1
a0005f88:	00b12023          	sw	a1,0(sp)
a0005f8c:	00646433          	or	s0,s0,t1
a0005f90:	00556533          	or	a0,a0,t0
a0005f94:	40c686b3          	sub	a3,a3,a2
a0005f98:	f80398e3          	bnez	t2,a0005f28 <__udivmoddi4+0x174>
a0005f9c:	01f45593          	srli	a1,s0,0x1f
a0005fa0:	00068793          	mv	a5,a3
a0005fa4:	00151693          	slli	a3,a0,0x1
a0005fa8:	00012603          	lw	a2,0(sp)
a0005fac:	00d5e5b3          	or	a1,a1,a3
a0005fb0:	00412683          	lw	a3,4(sp)
a0005fb4:	00141413          	slli	s0,s0,0x1
a0005fb8:	00c46533          	or	a0,s0,a2
a0005fbc:	e40686e3          	beqz	a3,a0005e08 <__udivmoddi4+0x54>
a0005fc0:	01c12083          	lw	ra,28(sp)
a0005fc4:	01812403          	lw	s0,24(sp)
a0005fc8:	00e6a023          	sw	a4,0(a3)
a0005fcc:	00f6a223          	sw	a5,4(a3)
a0005fd0:	01412483          	lw	s1,20(sp)
a0005fd4:	02010113          	addi	sp,sp,32
a0005fd8:	00008067          	ret
a0005fdc:	00412783          	lw	a5,4(sp)
a0005fe0:	08078a63          	beqz	a5,a0006074 <__udivmoddi4+0x2c0>
a0005fe4:	01c12083          	lw	ra,28(sp)
a0005fe8:	01812403          	lw	s0,24(sp)
a0005fec:	00a7a023          	sw	a0,0(a5)
a0005ff0:	0007a223          	sw	zero,4(a5)
a0005ff4:	01412483          	lw	s1,20(sp)
a0005ff8:	00000513          	li	a0,0
a0005ffc:	00000593          	li	a1,0
a0006000:	02010113          	addi	sp,sp,32
a0006004:	00008067          	ret
a0006008:	fff60613          	addi	a2,a2,-1
a000600c:	009675b3          	and	a1,a2,s1
a0006010:	06059863          	bnez	a1,a0006080 <__udivmoddi4+0x2cc>
a0006014:	00412703          	lw	a4,4(sp)
a0006018:	00070863          	beqz	a4,a0006028 <__udivmoddi4+0x274>
a000601c:	00a67633          	and	a2,a2,a0
a0006020:	00c72023          	sw	a2,0(a4)
a0006024:	00072223          	sw	zero,4(a4)
a0006028:	00100713          	li	a4,1
a000602c:	12e48263          	beq	s1,a4,a0006150 <__udivmoddi4+0x39c>
a0006030:	00048513          	mv	a0,s1
a0006034:	00f12223          	sw	a5,4(sp)
a0006038:	00612023          	sw	t1,0(sp)
a000603c:	254000ef          	jal	ra,a0006290 <__ctzsi2>
a0006040:	00412783          	lw	a5,4(sp)
a0006044:	00012303          	lw	t1,0(sp)
a0006048:	02000413          	li	s0,32
a000604c:	40a40433          	sub	s0,s0,a0
a0006050:	00050713          	mv	a4,a0
a0006054:	00879433          	sll	s0,a5,s0
a0006058:	00a35533          	srl	a0,t1,a0
a000605c:	00a46533          	or	a0,s0,a0
a0006060:	00e7d5b3          	srl	a1,a5,a4
a0006064:	da5ff06f          	j	a0005e08 <__udivmoddi4+0x54>
a0006068:	00100073          	ebreak
a000606c:	00412703          	lw	a4,4(sp)
a0006070:	0c071663          	bnez	a4,a000613c <__udivmoddi4+0x388>
a0006074:	00000513          	li	a0,0
a0006078:	00000593          	li	a1,0
a000607c:	d8dff06f          	j	a0005e08 <__udivmoddi4+0x54>
a0006080:	00a12623          	sw	a0,12(sp)
a0006084:	00048513          	mv	a0,s1
a0006088:	00068413          	mv	s0,a3
a000608c:	00d12823          	sw	a3,16(sp)
a0006090:	00f12023          	sw	a5,0(sp)
a0006094:	164000ef          	jal	ra,a00061f8 <__clzsi2>
a0006098:	00012703          	lw	a4,0(sp)
a000609c:	00050613          	mv	a2,a0
a00060a0:	00c12023          	sw	a2,0(sp)
a00060a4:	00070513          	mv	a0,a4
a00060a8:	00e12423          	sw	a4,8(sp)
a00060ac:	14c000ef          	jal	ra,a00061f8 <__clzsi2>
a00060b0:	00012603          	lw	a2,0(sp)
a00060b4:	00c12303          	lw	t1,12(sp)
a00060b8:	02000593          	li	a1,32
a00060bc:	40a60633          	sub	a2,a2,a0
a00060c0:	02160393          	addi	t2,a2,33
a00060c4:	00812703          	lw	a4,8(sp)
a00060c8:	01012683          	lw	a3,16(sp)
a00060cc:	00030513          	mv	a0,t1
a00060d0:	00000793          	li	a5,0
a00060d4:	e4b382e3          	beq	t2,a1,a0005f18 <__udivmoddi4+0x164>
a00060d8:	01f00313          	li	t1,31
a00060dc:	0a736e63          	bltu	t1,t2,a0006198 <__udivmoddi4+0x3e4>
a00060e0:	407585b3          	sub	a1,a1,t2
a00060e4:	00755633          	srl	a2,a0,t2
a00060e8:	00b71333          	sll	t1,a4,a1
a00060ec:	007757b3          	srl	a5,a4,t2
a00060f0:	00b51533          	sll	a0,a0,a1
a00060f4:	00c36733          	or	a4,t1,a2
a00060f8:	e21ff06f          	j	a0005f18 <__udivmoddi4+0x164>
a00060fc:	00412403          	lw	s0,4(sp)
a0006100:	02040463          	beqz	s0,a0006128 <__udivmoddi4+0x374>
a0006104:	00068593          	mv	a1,a3
a0006108:	00078513          	mv	a0,a5
a000610c:	00d12223          	sw	a3,4(sp)
a0006110:	00f12023          	sw	a5,0(sp)
a0006114:	b3dff0ef          	jal	ra,a0005c50 <__umodsi3>
a0006118:	00412683          	lw	a3,4(sp)
a000611c:	00012783          	lw	a5,0(sp)
a0006120:	00042023          	sw	zero,0(s0)
a0006124:	00a42223          	sw	a0,4(s0)
a0006128:	00068593          	mv	a1,a3
a000612c:	00078513          	mv	a0,a5
a0006130:	ad9ff0ef          	jal	ra,a0005c08 <__hidden___udivsi3>
a0006134:	00000593          	li	a1,0
a0006138:	cd1ff06f          	j	a0005e08 <__udivmoddi4+0x54>
a000613c:	00672023          	sw	t1,0(a4)
a0006140:	00f72223          	sw	a5,4(a4)
a0006144:	00000513          	li	a0,0
a0006148:	00000593          	li	a1,0
a000614c:	cbdff06f          	j	a0005e08 <__udivmoddi4+0x54>
a0006150:	00030513          	mv	a0,t1
a0006154:	00078593          	mv	a1,a5
a0006158:	cb1ff06f          	j	a0005e08 <__udivmoddi4+0x54>
a000615c:	00412703          	lw	a4,4(sp)
a0006160:	00070863          	beqz	a4,a0006170 <__udivmoddi4+0x3bc>
a0006164:	00f67633          	and	a2,a2,a5
a0006168:	00a72023          	sw	a0,0(a4)
a000616c:	00c72223          	sw	a2,4(a4)
a0006170:	00068513          	mv	a0,a3
a0006174:	00f12023          	sw	a5,0(sp)
a0006178:	118000ef          	jal	ra,a0006290 <__ctzsi2>
a000617c:	00012783          	lw	a5,0(sp)
a0006180:	00000593          	li	a1,0
a0006184:	00a7d533          	srl	a0,a5,a0
a0006188:	c81ff06f          	j	a0005e08 <__udivmoddi4+0x54>
a000618c:	00000793          	li	a5,0
a0006190:	00000413          	li	s0,0
a0006194:	d85ff06f          	j	a0005f18 <__udivmoddi4+0x164>
a0006198:	04000593          	li	a1,64
a000619c:	407585b3          	sub	a1,a1,t2
a00061a0:	00160613          	addi	a2,a2,1
a00061a4:	00b51433          	sll	s0,a0,a1
a00061a8:	00b715b3          	sll	a1,a4,a1
a00061ac:	00c55533          	srl	a0,a0,a2
a00061b0:	00a5e533          	or	a0,a1,a0
a00061b4:	00c75733          	srl	a4,a4,a2
a00061b8:	d61ff06f          	j	a0005f18 <__udivmoddi4+0x164>

a00061bc <__udivdi3>:
a00061bc:	00000713          	li	a4,0
a00061c0:	bf5ff06f          	j	a0005db4 <__udivmoddi4>

a00061c4 <__umoddi3>:
a00061c4:	fe810113          	addi	sp,sp,-24
a00061c8:	00812823          	sw	s0,16(sp)
a00061cc:	00710413          	addi	s0,sp,7
a00061d0:	ff847413          	andi	s0,s0,-8
a00061d4:	00040713          	mv	a4,s0
a00061d8:	00112a23          	sw	ra,20(sp)
a00061dc:	bd9ff0ef          	jal	ra,a0005db4 <__udivmoddi4>
a00061e0:	00042503          	lw	a0,0(s0)
a00061e4:	00442583          	lw	a1,4(s0)
a00061e8:	01412083          	lw	ra,20(sp)
a00061ec:	01012403          	lw	s0,16(sp)
a00061f0:	01810113          	addi	sp,sp,24
a00061f4:	00008067          	ret

a00061f8 <__clzsi2>:
a00061f8:	ffff0637          	lui	a2,0xffff0
a00061fc:	00c57633          	and	a2,a0,a2
a0006200:	00163613          	seqz	a2,a2
a0006204:	00461613          	slli	a2,a2,0x4
a0006208:	01000793          	li	a5,16
a000620c:	40c787b3          	sub	a5,a5,a2
a0006210:	00010737          	lui	a4,0x10
a0006214:	00f557b3          	srl	a5,a0,a5
a0006218:	f0070713          	addi	a4,a4,-256 # ff00 <_text_size+0x90f8>
a000621c:	00e7f733          	and	a4,a5,a4
a0006220:	00173713          	seqz	a4,a4
a0006224:	00371713          	slli	a4,a4,0x3
a0006228:	00800693          	li	a3,8
a000622c:	40e686b3          	sub	a3,a3,a4
a0006230:	00d7d7b3          	srl	a5,a5,a3
a0006234:	0f07f593          	andi	a1,a5,240
a0006238:	0015b593          	seqz	a1,a1
a000623c:	00259593          	slli	a1,a1,0x2
a0006240:	00400693          	li	a3,4
a0006244:	40b686b3          	sub	a3,a3,a1
a0006248:	00d7d7b3          	srl	a5,a5,a3
a000624c:	00c7f513          	andi	a0,a5,12
a0006250:	00153513          	seqz	a0,a0
a0006254:	00151513          	slli	a0,a0,0x1
a0006258:	00200313          	li	t1,2
a000625c:	40a306b3          	sub	a3,t1,a0
a0006260:	00d7d7b3          	srl	a5,a5,a3
a0006264:	0017d693          	srli	a3,a5,0x1
a0006268:	0016c693          	xori	a3,a3,1
a000626c:	00c70733          	add	a4,a4,a2
a0006270:	0016f693          	andi	a3,a3,1
a0006274:	00e585b3          	add	a1,a1,a4
a0006278:	40f30333          	sub	t1,t1,a5
a000627c:	40d006b3          	neg	a3,a3
a0006280:	0066f6b3          	and	a3,a3,t1
a0006284:	00b50533          	add	a0,a0,a1
a0006288:	00a68533          	add	a0,a3,a0
a000628c:	00008067          	ret

a0006290 <__ctzsi2>:
a0006290:	01051593          	slli	a1,a0,0x10
a0006294:	0105d593          	srli	a1,a1,0x10
a0006298:	0015b593          	seqz	a1,a1
a000629c:	00459593          	slli	a1,a1,0x4
a00062a0:	00b557b3          	srl	a5,a0,a1
a00062a4:	0ff7f613          	zext.b	a2,a5
a00062a8:	00163613          	seqz	a2,a2
a00062ac:	00361613          	slli	a2,a2,0x3
a00062b0:	00c7d7b3          	srl	a5,a5,a2
a00062b4:	00f7f693          	andi	a3,a5,15
a00062b8:	0016b693          	seqz	a3,a3
a00062bc:	00269693          	slli	a3,a3,0x2
a00062c0:	00d7d7b3          	srl	a5,a5,a3
a00062c4:	0037f713          	andi	a4,a5,3
a00062c8:	00173713          	seqz	a4,a4
a00062cc:	00171713          	slli	a4,a4,0x1
a00062d0:	00e7d7b3          	srl	a5,a5,a4
a00062d4:	0017d513          	srli	a0,a5,0x1
a00062d8:	00b60633          	add	a2,a2,a1
a00062dc:	0017f793          	andi	a5,a5,1
a00062e0:	00157593          	andi	a1,a0,1
a00062e4:	00200513          	li	a0,2
a00062e8:	40b50533          	sub	a0,a0,a1
a00062ec:	00c686b3          	add	a3,a3,a2
a00062f0:	fff78793          	addi	a5,a5,-1
a00062f4:	00f577b3          	and	a5,a0,a5
a00062f8:	00d70533          	add	a0,a4,a3
a00062fc:	00a78533          	add	a0,a5,a0
a0006300:	00008067          	ret

a0006304 <intHandel>:
a0006304:	0005a783          	lw	a5,0(a1)
a0006308:	fe810113          	addi	sp,sp,-24
a000630c:	00812823          	sw	s0,16(sp)
a0006310:	00912623          	sw	s1,12(sp)
a0006314:	00112a23          	sw	ra,20(sp)
a0006318:	00b12023          	sw	a1,0(sp)
a000631c:	00e12223          	sw	a4,4(sp)
a0006320:	00060413          	mv	s0,a2
a0006324:	00068493          	mv	s1,a3
a0006328:	0007d863          	bgez	a5,a0006338 <intHandel+0x34>
a000632c:	00100793          	li	a5,1
a0006330:	00f52023          	sw	a5,0(a0)
a0006334:	0005a783          	lw	a5,0(a1)
a0006338:	80000737          	lui	a4,0x80000
a000633c:	ffe74713          	xori	a4,a4,-2
a0006340:	00e12423          	sw	a4,8(sp)
a0006344:	80000737          	lui	a4,0x80000
a0006348:	00812683          	lw	a3,8(sp)
a000634c:	fff74713          	not	a4,a4
a0006350:	00e78733          	add	a4,a5,a4
a0006354:	00048593          	mv	a1,s1
a0006358:	00e6e863          	bltu	a3,a4,a0006368 <intHandel+0x64>
a000635c:	00012703          	lw	a4,0(sp)
a0006360:	40f007b3          	neg	a5,a5
a0006364:	00f72023          	sw	a5,0(a4) # 80000000 <_heap_end+0xdfdf7e48>
a0006368:	00078513          	mv	a0,a5
a000636c:	919ff0ef          	jal	ra,a0005c84 <__modsi3>
a0006370:	41f55713          	srai	a4,a0,0x1f
a0006374:	00a74533          	xor	a0,a4,a0
a0006378:	00042783          	lw	a5,0(s0)
a000637c:	40e50533          	sub	a0,a0,a4
a0006380:	00412703          	lw	a4,4(sp)
a0006384:	03050513          	addi	a0,a0,48
a0006388:	00048593          	mv	a1,s1
a000638c:	00f707b3          	add	a5,a4,a5
a0006390:	00a78023          	sb	a0,0(a5)
a0006394:	00042783          	lw	a5,0(s0)
a0006398:	fff78793          	addi	a5,a5,-1
a000639c:	00f42023          	sw	a5,0(s0)
a00063a0:	00012783          	lw	a5,0(sp)
a00063a4:	0007a503          	lw	a0,0(a5)
a00063a8:	859ff0ef          	jal	ra,a0005c00 <__divsi3>
a00063ac:	00012703          	lw	a4,0(sp)
a00063b0:	00050793          	mv	a5,a0
a00063b4:	00a72023          	sw	a0,0(a4)
a00063b8:	f80516e3          	bnez	a0,a0006344 <intHandel+0x40>
a00063bc:	00042783          	lw	a5,0(s0)
a00063c0:	01412083          	lw	ra,20(sp)
a00063c4:	00c12483          	lw	s1,12(sp)
a00063c8:	00178793          	addi	a5,a5,1
a00063cc:	00f42023          	sw	a5,0(s0)
a00063d0:	01012403          	lw	s0,16(sp)
a00063d4:	01810113          	addi	sp,sp,24
a00063d8:	00008067          	ret

a00063dc <vsnprintf>:
a00063dc:	f8c10113          	addi	sp,sp,-116
a00063e0:	06812623          	sw	s0,108(sp)
a00063e4:	06912423          	sw	s1,104(sp)
a00063e8:	06112823          	sw	ra,112(sp)
a00063ec:	02012423          	sw	zero,40(sp)
a00063f0:	fff58793          	addi	a5,a1,-1
a00063f4:	00d12223          	sw	a3,4(sp)
a00063f8:	00050413          	mv	s0,a0
a00063fc:	00000493          	li	s1,0
a0006400:	06078263          	beqz	a5,a0006464 <vsnprintf+0x88>
a0006404:	00000493          	li	s1,0
a0006408:	00060393          	mv	t2,a2
a000640c:	00012823          	sw	zero,16(sp)
a0006410:	00012423          	sw	zero,8(sp)
a0006414:	00012a23          	sw	zero,20(sp)
a0006418:	00000693          	li	a3,0
a000641c:	00000713          	li	a4,0
a0006420:	00048313          	mv	t1,s1
a0006424:	00050293          	mv	t0,a0
a0006428:	0003c503          	lbu	a0,0(t2)
a000642c:	02050663          	beqz	a0,a0006458 <vsnprintf+0x7c>
a0006430:	02500613          	li	a2,37
a0006434:	04c50663          	beq	a0,a2,a0006480 <vsnprintf+0xa4>
a0006438:	00100613          	li	a2,1
a000643c:	04c68863          	beq	a3,a2,a000648c <vsnprintf+0xb0>
a0006440:	00e28733          	add	a4,t0,a4
a0006444:	00130313          	addi	t1,t1,1
a0006448:	00a70023          	sb	a0,0(a4)
a000644c:	00030713          	mv	a4,t1
a0006450:	00138393          	addi	t2,t2,1
a0006454:	fcf76ae3          	bltu	a4,a5,a0006428 <vsnprintf+0x4c>
a0006458:	00030493          	mv	s1,t1
a000645c:	00028413          	mv	s0,t0
a0006460:	00e40433          	add	s0,s0,a4
a0006464:	00040023          	sb	zero,0(s0)
a0006468:	07012083          	lw	ra,112(sp)
a000646c:	06c12403          	lw	s0,108(sp)
a0006470:	00048513          	mv	a0,s1
a0006474:	06812483          	lw	s1,104(sp)
a0006478:	07410113          	addi	sp,sp,116
a000647c:	00008067          	ret
a0006480:	0016c693          	xori	a3,a3,1
a0006484:	00030713          	mv	a4,t1
a0006488:	fc9ff06f          	j	a0006450 <vsnprintf+0x74>
a000648c:	07300613          	li	a2,115
a0006490:	1cc50263          	beq	a0,a2,a0006654 <vsnprintf+0x278>
a0006494:	06300613          	li	a2,99
a0006498:	16c50663          	beq	a0,a2,a0006604 <vsnprintf+0x228>
a000649c:	07000613          	li	a2,112
a00064a0:	40c50c63          	beq	a0,a2,a00068b8 <vsnprintf+0x4dc>
a00064a4:	03000713          	li	a4,48
a00064a8:	18e50263          	beq	a0,a4,a000662c <vsnprintf+0x250>
a00064ac:	fd050713          	addi	a4,a0,-48
a00064b0:	0ff77593          	zext.b	a1,a4
a00064b4:	00900613          	li	a2,9
a00064b8:	18b67063          	bgeu	a2,a1,a0006638 <vsnprintf+0x25c>
a00064bc:	01012703          	lw	a4,16(sp)
a00064c0:	20071a63          	bnez	a4,a00066d4 <vsnprintf+0x2f8>
a00064c4:	06c00713          	li	a4,108
a00064c8:	f8e502e3          	beq	a0,a4,a000644c <vsnprintf+0x70>
a00064cc:	06400713          	li	a4,100
a00064d0:	54e50263          	beq	a0,a4,a0006a14 <vsnprintf+0x638>
a00064d4:	07800713          	li	a4,120
a00064d8:	26e50863          	beq	a0,a4,a0006748 <vsnprintf+0x36c>
a00064dc:	07500713          	li	a4,117
a00064e0:	6ce51e63          	bne	a0,a4,a0006bbc <vsnprintf+0x7e0>
a00064e4:	00412683          	lw	a3,4(sp)
a00064e8:	03410493          	addi	s1,sp,52
a00064ec:	00f12c23          	sw	a5,24(sp)
a00064f0:	0006a403          	lw	s0,0(a3)
a00064f4:	00468713          	addi	a4,a3,4
a00064f8:	00e12223          	sw	a4,4(sp)
a00064fc:	03000713          	li	a4,48
a0006500:	40970733          	sub	a4,a4,s1
a0006504:	00040793          	mv	a5,s0
a0006508:	02012a23          	sw	zero,52(sp)
a000650c:	00048413          	mv	s0,s1
a0006510:	02012c23          	sw	zero,56(sp)
a0006514:	02012e23          	sw	zero,60(sp)
a0006518:	04012023          	sw	zero,64(sp)
a000651c:	04012223          	sw	zero,68(sp)
a0006520:	04012423          	sw	zero,72(sp)
a0006524:	04012623          	sw	zero,76(sp)
a0006528:	04012823          	sw	zero,80(sp)
a000652c:	04012a23          	sw	zero,84(sp)
a0006530:	04012c23          	sw	zero,88(sp)
a0006534:	04012e23          	sw	zero,92(sp)
a0006538:	06012023          	sw	zero,96(sp)
a000653c:	06011223          	sh	zero,100(sp)
a0006540:	02012423          	sw	zero,40(sp)
a0006544:	00e12623          	sw	a4,12(sp)
a0006548:	00712e23          	sw	t2,28(sp)
a000654c:	02612023          	sw	t1,32(sp)
a0006550:	02512223          	sw	t0,36(sp)
a0006554:	00078493          	mv	s1,a5
a0006558:	00a00593          	li	a1,10
a000655c:	00048513          	mv	a0,s1
a0006560:	ef0ff0ef          	jal	ra,a0005c50 <__umodsi3>
a0006564:	03050693          	addi	a3,a0,48
a0006568:	02d40823          	sb	a3,48(s0)
a000656c:	00048513          	mv	a0,s1
a0006570:	00a00593          	li	a1,10
a0006574:	00912023          	sw	s1,0(sp)
a0006578:	e90ff0ef          	jal	ra,a0005c08 <__hidden___udivsi3>
a000657c:	00c12783          	lw	a5,12(sp)
a0006580:	00012683          	lw	a3,0(sp)
a0006584:	00050493          	mv	s1,a0
a0006588:	008785b3          	add	a1,a5,s0
a000658c:	00900793          	li	a5,9
a0006590:	fff40413          	addi	s0,s0,-1
a0006594:	fcd7e2e3          	bltu	a5,a3,a0006558 <vsnprintf+0x17c>
a0006598:	00812703          	lw	a4,8(sp)
a000659c:	01812783          	lw	a5,24(sp)
a00065a0:	01c12383          	lw	t2,28(sp)
a00065a4:	02012303          	lw	t1,32(sp)
a00065a8:	02412283          	lw	t0,36(sp)
a00065ac:	00070a63          	beqz	a4,a00065c0 <vsnprintf+0x1e4>
a00065b0:	01412703          	lw	a4,20(sp)
a00065b4:	03100693          	li	a3,49
a00065b8:	40b686b3          	sub	a3,a3,a1
a00065bc:	2ae6ce63          	blt	a3,a4,a0006878 <vsnprintf+0x49c>
a00065c0:	44f37463          	bgeu	t1,a5,a0006a08 <vsnprintf+0x62c>
a00065c4:	40b306b3          	sub	a3,t1,a1
a00065c8:	03168693          	addi	a3,a3,49
a00065cc:	406585b3          	sub	a1,a1,t1
a00065d0:	0080006f          	j	a00065d8 <vsnprintf+0x1fc>
a00065d4:	02d30463          	beq	t1,a3,a00065fc <vsnprintf+0x220>
a00065d8:	00658733          	add	a4,a1,t1
a00065dc:	03410613          	addi	a2,sp,52
a00065e0:	00e60733          	add	a4,a2,a4
a00065e4:	00074603          	lbu	a2,0(a4)
a00065e8:	00628733          	add	a4,t0,t1
a00065ec:	00130313          	addi	t1,t1,1
a00065f0:	00c70023          	sb	a2,0(a4)
a00065f4:	00030713          	mv	a4,t1
a00065f8:	fcf36ee3          	bltu	t1,a5,a00065d4 <vsnprintf+0x1f8>
a00065fc:	00000693          	li	a3,0
a0006600:	e51ff06f          	j	a0006450 <vsnprintf+0x74>
a0006604:	00412603          	lw	a2,4(sp)
a0006608:	00e28733          	add	a4,t0,a4
a000660c:	00130313          	addi	t1,t1,1
a0006610:	00062683          	lw	a3,0(a2) # ffff0000 <_heap_end+0x5fde7e48>
a0006614:	00460613          	addi	a2,a2,4
a0006618:	00c12223          	sw	a2,4(sp)
a000661c:	00d70023          	sb	a3,0(a4)
a0006620:	00030713          	mv	a4,t1
a0006624:	00000693          	li	a3,0
a0006628:	e29ff06f          	j	a0006450 <vsnprintf+0x74>
a000662c:	01012703          	lw	a4,16(sp)
a0006630:	06070863          	beqz	a4,a00066a0 <vsnprintf+0x2c4>
a0006634:	00000713          	li	a4,0
a0006638:	00812603          	lw	a2,8(sp)
a000663c:	06061863          	bnez	a2,a00066ac <vsnprintf+0x2d0>
a0006640:	00100613          	li	a2,1
a0006644:	00e12a23          	sw	a4,20(sp)
a0006648:	00c12423          	sw	a2,8(sp)
a000664c:	00030713          	mv	a4,t1
a0006650:	e01ff06f          	j	a0006450 <vsnprintf+0x74>
a0006654:	00412703          	lw	a4,4(sp)
a0006658:	00030693          	mv	a3,t1
a000665c:	00072603          	lw	a2,0(a4)
a0006660:	00470593          	addi	a1,a4,4
a0006664:	00f36e63          	bltu	t1,a5,a0006680 <vsnprintf+0x2a4>
a0006668:	5080006f          	j	a0006b70 <vsnprintf+0x794>
a000666c:	00628733          	add	a4,t0,t1
a0006670:	00a70023          	sb	a0,0(a4)
a0006674:	00130313          	addi	t1,t1,1
a0006678:	00030713          	mv	a4,t1
a000667c:	dcf37ee3          	bgeu	t1,a5,a0006458 <vsnprintf+0x7c>
a0006680:	40d30733          	sub	a4,t1,a3
a0006684:	00e60733          	add	a4,a2,a4
a0006688:	00074503          	lbu	a0,0(a4)
a000668c:	00030713          	mv	a4,t1
a0006690:	fc051ee3          	bnez	a0,a000666c <vsnprintf+0x290>
a0006694:	00b12223          	sw	a1,4(sp)
a0006698:	00000693          	li	a3,0
a000669c:	db5ff06f          	j	a0006450 <vsnprintf+0x74>
a00066a0:	00812703          	lw	a4,8(sp)
a00066a4:	08070a63          	beqz	a4,a0006738 <vsnprintf+0x35c>
a00066a8:	00000713          	li	a4,0
a00066ac:	01412583          	lw	a1,20(sp)
a00066b0:	00259613          	slli	a2,a1,0x2
a00066b4:	00b60633          	add	a2,a2,a1
a00066b8:	00161613          	slli	a2,a2,0x1
a00066bc:	00e60733          	add	a4,a2,a4
a00066c0:	00100613          	li	a2,1
a00066c4:	00e12a23          	sw	a4,20(sp)
a00066c8:	00c12423          	sw	a2,8(sp)
a00066cc:	00030713          	mv	a4,t1
a00066d0:	d81ff06f          	j	a0006450 <vsnprintf+0x74>
a00066d4:	00812703          	lw	a4,8(sp)
a00066d8:	de0716e3          	bnez	a4,a00064c4 <vsnprintf+0xe8>
a00066dc:	00001417          	auipc	s0,0x1
a00066e0:	f5c40413          	addi	s0,s0,-164 # a0007638 <r+0x6c0>
a00066e4:	04100513          	li	a0,65
a00066e8:	00140413          	addi	s0,s0,1
a00066ec:	ec5fe0ef          	jal	ra,a00055b0 <putch>
a00066f0:	00044503          	lbu	a0,0(s0)
a00066f4:	fe051ae3          	bnez	a0,a00066e8 <vsnprintf+0x30c>
a00066f8:	00001417          	auipc	s0,0x1
a00066fc:	29c40413          	addi	s0,s0,668 # a0007994 <r+0xa1c>
a0006700:	04900513          	li	a0,73
a0006704:	00140413          	addi	s0,s0,1
a0006708:	ea9fe0ef          	jal	ra,a00055b0 <putch>
a000670c:	00044503          	lbu	a0,0(s0)
a0006710:	fe051ae3          	bnez	a0,a0006704 <vsnprintf+0x328>
a0006714:	00001417          	auipc	s0,0x1
a0006718:	29040413          	addi	s0,s0,656 # a00079a4 <r+0xa2c>
a000671c:	02000513          	li	a0,32
a0006720:	00140413          	addi	s0,s0,1
a0006724:	e8dfe0ef          	jal	ra,a00055b0 <putch>
a0006728:	00044503          	lbu	a0,0(s0)
a000672c:	fe051ae3          	bnez	a0,a0006720 <vsnprintf+0x344>
a0006730:	00100513          	li	a0,1
a0006734:	e99fe0ef          	jal	ra,a00055cc <halt>
a0006738:	00100613          	li	a2,1
a000673c:	00030713          	mv	a4,t1
a0006740:	00c12823          	sw	a2,16(sp)
a0006744:	d0dff06f          	j	a0006450 <vsnprintf+0x74>
a0006748:	00412683          	lw	a3,4(sp)
a000674c:	03000613          	li	a2,48
a0006750:	02012a23          	sw	zero,52(sp)
a0006754:	0006a703          	lw	a4,0(a3)
a0006758:	00468693          	addi	a3,a3,4
a000675c:	00d12223          	sw	a3,4(sp)
a0006760:	03410693          	addi	a3,sp,52
a0006764:	02012c23          	sw	zero,56(sp)
a0006768:	02012e23          	sw	zero,60(sp)
a000676c:	04012023          	sw	zero,64(sp)
a0006770:	04012223          	sw	zero,68(sp)
a0006774:	04012423          	sw	zero,72(sp)
a0006778:	04012623          	sw	zero,76(sp)
a000677c:	04012823          	sw	zero,80(sp)
a0006780:	04012a23          	sw	zero,84(sp)
a0006784:	04012c23          	sw	zero,88(sp)
a0006788:	04012e23          	sw	zero,92(sp)
a000678c:	06012023          	sw	zero,96(sp)
a0006790:	06011223          	sh	zero,100(sp)
a0006794:	02012423          	sw	zero,40(sp)
a0006798:	40d60533          	sub	a0,a2,a3
a000679c:	00f00493          	li	s1,15
a00067a0:	00f12023          	sw	a5,0(sp)
a00067a4:	00612623          	sw	t1,12(sp)
a00067a8:	0080006f          	j	a00067b0 <vsnprintf+0x3d4>
a00067ac:	00078713          	mv	a4,a5
a00067b0:	00f77593          	andi	a1,a4,15
a00067b4:	00900313          	li	t1,9
a00067b8:	00d50433          	add	s0,a0,a3
a00067bc:	05758613          	addi	a2,a1,87
a00067c0:	00b36463          	bltu	t1,a1,a00067c8 <vsnprintf+0x3ec>
a00067c4:	03058613          	addi	a2,a1,48
a00067c8:	02c68823          	sb	a2,48(a3)
a00067cc:	00475793          	srli	a5,a4,0x4
a00067d0:	fff68693          	addi	a3,a3,-1
a00067d4:	fce4ece3          	bltu	s1,a4,a00067ac <vsnprintf+0x3d0>
a00067d8:	00812703          	lw	a4,8(sp)
a00067dc:	00012783          	lw	a5,0(sp)
a00067e0:	00c12303          	lw	t1,12(sp)
a00067e4:	04070863          	beqz	a4,a0006834 <vsnprintf+0x458>
a00067e8:	01412703          	lw	a4,20(sp)
a00067ec:	03100693          	li	a3,49
a00067f0:	408686b3          	sub	a3,a3,s0
a00067f4:	04e6d063          	bge	a3,a4,a0006834 <vsnprintf+0x458>
a00067f8:	40d706b3          	sub	a3,a4,a3
a00067fc:	3ad05063          	blez	a3,a0006b9c <vsnprintf+0x7c0>
a0006800:	01012503          	lw	a0,16(sp)
a0006804:	00628733          	add	a4,t0,t1
a0006808:	00d705b3          	add	a1,a4,a3
a000680c:	02000613          	li	a2,32
a0006810:	00050463          	beqz	a0,a0006818 <vsnprintf+0x43c>
a0006814:	03000613          	li	a2,48
a0006818:	00c70023          	sb	a2,0(a4)
a000681c:	00170713          	addi	a4,a4,1
a0006820:	fee59ce3          	bne	a1,a4,a0006818 <vsnprintf+0x43c>
a0006824:	00668333          	add	t1,a3,t1
a0006828:	00012823          	sw	zero,16(sp)
a000682c:	00012423          	sw	zero,8(sp)
a0006830:	00012a23          	sw	zero,20(sp)
a0006834:	1cf37a63          	bgeu	t1,a5,a0006a08 <vsnprintf+0x62c>
a0006838:	408306b3          	sub	a3,t1,s0
a000683c:	03168693          	addi	a3,a3,49
a0006840:	40640433          	sub	s0,s0,t1
a0006844:	0080006f          	j	a000684c <vsnprintf+0x470>
a0006848:	da668ae3          	beq	a3,t1,a00065fc <vsnprintf+0x220>
a000684c:	00640733          	add	a4,s0,t1
a0006850:	03410613          	addi	a2,sp,52
a0006854:	00e60733          	add	a4,a2,a4
a0006858:	00074603          	lbu	a2,0(a4)
a000685c:	00628733          	add	a4,t0,t1
a0006860:	00130313          	addi	t1,t1,1
a0006864:	00c70023          	sb	a2,0(a4)
a0006868:	00030713          	mv	a4,t1
a000686c:	fcf36ee3          	bltu	t1,a5,a0006848 <vsnprintf+0x46c>
a0006870:	00000693          	li	a3,0
a0006874:	bddff06f          	j	a0006450 <vsnprintf+0x74>
a0006878:	40d706b3          	sub	a3,a4,a3
a000687c:	30d05263          	blez	a3,a0006b80 <vsnprintf+0x7a4>
a0006880:	01012403          	lw	s0,16(sp)
a0006884:	00628733          	add	a4,t0,t1
a0006888:	00d70533          	add	a0,a4,a3
a000688c:	02000613          	li	a2,32
a0006890:	2c041063          	bnez	s0,a0006b50 <vsnprintf+0x774>
a0006894:	0ff67613          	zext.b	a2,a2
a0006898:	00c70023          	sb	a2,0(a4)
a000689c:	00170713          	addi	a4,a4,1
a00068a0:	fee51ce3          	bne	a0,a4,a0006898 <vsnprintf+0x4bc>
a00068a4:	00668333          	add	t1,a3,t1
a00068a8:	00012823          	sw	zero,16(sp)
a00068ac:	00012423          	sw	zero,8(sp)
a00068b0:	00012a23          	sw	zero,20(sp)
a00068b4:	d0dff06f          	j	a00065c0 <vsnprintf+0x1e4>
a00068b8:	00412603          	lw	a2,4(sp)
a00068bc:	03000593          	li	a1,48
a00068c0:	02012a23          	sw	zero,52(sp)
a00068c4:	00062683          	lw	a3,0(a2)
a00068c8:	00460613          	addi	a2,a2,4
a00068cc:	00c12223          	sw	a2,4(sp)
a00068d0:	03410613          	addi	a2,sp,52
a00068d4:	02012c23          	sw	zero,56(sp)
a00068d8:	02012e23          	sw	zero,60(sp)
a00068dc:	04012023          	sw	zero,64(sp)
a00068e0:	04012223          	sw	zero,68(sp)
a00068e4:	04012423          	sw	zero,72(sp)
a00068e8:	04012623          	sw	zero,76(sp)
a00068ec:	04012823          	sw	zero,80(sp)
a00068f0:	04012a23          	sw	zero,84(sp)
a00068f4:	04012c23          	sw	zero,88(sp)
a00068f8:	04012e23          	sw	zero,92(sp)
a00068fc:	06012023          	sw	zero,96(sp)
a0006900:	06011223          	sh	zero,100(sp)
a0006904:	02012423          	sw	zero,40(sp)
a0006908:	40c58433          	sub	s0,a1,a2
a000690c:	00e12023          	sw	a4,0(sp)
a0006910:	00f12423          	sw	a5,8(sp)
a0006914:	0080006f          	j	a000691c <vsnprintf+0x540>
a0006918:	00070693          	mv	a3,a4
a000691c:	00f6f513          	andi	a0,a3,15
a0006920:	00900793          	li	a5,9
a0006924:	00c404b3          	add	s1,s0,a2
a0006928:	05750593          	addi	a1,a0,87
a000692c:	00a7e463          	bltu	a5,a0,a0006934 <vsnprintf+0x558>
a0006930:	03050593          	addi	a1,a0,48
a0006934:	02b60823          	sb	a1,48(a2)
a0006938:	00f00793          	li	a5,15
a000693c:	0046d713          	srli	a4,a3,0x4
a0006940:	fff60613          	addi	a2,a2,-1
a0006944:	fcd7eae3          	bltu	a5,a3,a0006918 <vsnprintf+0x53c>
a0006948:	00012703          	lw	a4,0(sp)
a000694c:	00100593          	li	a1,1
a0006950:	03000693          	li	a3,48
a0006954:	00e28733          	add	a4,t0,a4
a0006958:	00812783          	lw	a5,8(sp)
a000695c:	00b12423          	sw	a1,8(sp)
a0006960:	01412583          	lw	a1,20(sp)
a0006964:	00d70023          	sb	a3,0(a4)
a0006968:	03100613          	li	a2,49
a000696c:	07800693          	li	a3,120
a0006970:	00628733          	add	a4,t0,t1
a0006974:	00d700a3          	sb	a3,1(a4)
a0006978:	40960633          	sub	a2,a2,s1
a000697c:	00230693          	addi	a3,t1,2
a0006980:	02b65863          	bge	a2,a1,a00069b0 <vsnprintf+0x5d4>
a0006984:	40c58633          	sub	a2,a1,a2
a0006988:	1cc05863          	blez	a2,a0006b58 <vsnprintf+0x77c>
a000698c:	00c705b3          	add	a1,a4,a2
a0006990:	03000693          	li	a3,48
a0006994:	00d70123          	sb	a3,2(a4)
a0006998:	00170713          	addi	a4,a4,1
a000699c:	feb71ce3          	bne	a4,a1,a0006994 <vsnprintf+0x5b8>
a00069a0:	00660633          	add	a2,a2,t1
a00069a4:	00260693          	addi	a3,a2,2
a00069a8:	00012423          	sw	zero,8(sp)
a00069ac:	00012a23          	sw	zero,20(sp)
a00069b0:	1ef6f063          	bgeu	a3,a5,a0006b90 <vsnprintf+0x7b4>
a00069b4:	40968333          	sub	t1,a3,s1
a00069b8:	03130313          	addi	t1,t1,49
a00069bc:	40d484b3          	sub	s1,s1,a3
a00069c0:	0080006f          	j	a00069c8 <vsnprintf+0x5ec>
a00069c4:	02668663          	beq	a3,t1,a00069f0 <vsnprintf+0x614>
a00069c8:	00d48733          	add	a4,s1,a3
a00069cc:	03410613          	addi	a2,sp,52
a00069d0:	00e60733          	add	a4,a2,a4
a00069d4:	00074603          	lbu	a2,0(a4)
a00069d8:	00d28733          	add	a4,t0,a3
a00069dc:	00168693          	addi	a3,a3,1
a00069e0:	00c70023          	sb	a2,0(a4)
a00069e4:	00068713          	mv	a4,a3
a00069e8:	fcf6eee3          	bltu	a3,a5,a00069c4 <vsnprintf+0x5e8>
a00069ec:	00068313          	mv	t1,a3
a00069f0:	00812683          	lw	a3,8(sp)
a00069f4:	00d12823          	sw	a3,16(sp)
a00069f8:	00000693          	li	a3,0
a00069fc:	a55ff06f          	j	a0006450 <vsnprintf+0x74>
a0006a00:	00050463          	beqz	a0,a0006a08 <vsnprintf+0x62c>
a0006a04:	02c12423          	sw	a2,40(sp)
a0006a08:	00030713          	mv	a4,t1
a0006a0c:	00000693          	li	a3,0
a0006a10:	a41ff06f          	j	a0006450 <vsnprintf+0x74>
a0006a14:	00f12023          	sw	a5,0(sp)
a0006a18:	00412783          	lw	a5,4(sp)
a0006a1c:	03410713          	addi	a4,sp,52
a0006a20:	00a00693          	li	a3,10
a0006a24:	0007a483          	lw	s1,0(a5)
a0006a28:	02c10613          	addi	a2,sp,44
a0006a2c:	00478793          	addi	a5,a5,4
a0006a30:	03010593          	addi	a1,sp,48
a0006a34:	02810513          	addi	a0,sp,40
a0006a38:	03000413          	li	s0,48
a0006a3c:	00512e23          	sw	t0,28(sp)
a0006a40:	00612c23          	sw	t1,24(sp)
a0006a44:	00712623          	sw	t2,12(sp)
a0006a48:	00f12223          	sw	a5,4(sp)
a0006a4c:	02012a23          	sw	zero,52(sp)
a0006a50:	02012c23          	sw	zero,56(sp)
a0006a54:	02012e23          	sw	zero,60(sp)
a0006a58:	04012023          	sw	zero,64(sp)
a0006a5c:	04012223          	sw	zero,68(sp)
a0006a60:	04012423          	sw	zero,72(sp)
a0006a64:	04012623          	sw	zero,76(sp)
a0006a68:	04012823          	sw	zero,80(sp)
a0006a6c:	04012a23          	sw	zero,84(sp)
a0006a70:	04012c23          	sw	zero,88(sp)
a0006a74:	04012e23          	sw	zero,92(sp)
a0006a78:	06012023          	sw	zero,96(sp)
a0006a7c:	06011223          	sh	zero,100(sp)
a0006a80:	02812623          	sw	s0,44(sp)
a0006a84:	02912823          	sw	s1,48(sp)
a0006a88:	02012423          	sw	zero,40(sp)
a0006a8c:	879ff0ef          	jal	ra,a0006304 <intHandel>
a0006a90:	00812703          	lw	a4,8(sp)
a0006a94:	02c12683          	lw	a3,44(sp)
a0006a98:	00012783          	lw	a5,0(sp)
a0006a9c:	00c12383          	lw	t2,12(sp)
a0006aa0:	01812303          	lw	t1,24(sp)
a0006aa4:	01c12283          	lw	t0,28(sp)
a0006aa8:	04070a63          	beqz	a4,a0006afc <vsnprintf+0x720>
a0006aac:	01412703          	lw	a4,20(sp)
a0006ab0:	03100613          	li	a2,49
a0006ab4:	40d60633          	sub	a2,a2,a3
a0006ab8:	04e65263          	bge	a2,a4,a0006afc <vsnprintf+0x720>
a0006abc:	40c70633          	sub	a2,a4,a2
a0006ac0:	0ec05663          	blez	a2,a0006bac <vsnprintf+0x7d0>
a0006ac4:	01012403          	lw	s0,16(sp)
a0006ac8:	00628733          	add	a4,t0,t1
a0006acc:	00c70533          	add	a0,a4,a2
a0006ad0:	02000593          	li	a1,32
a0006ad4:	00040463          	beqz	s0,a0006adc <vsnprintf+0x700>
a0006ad8:	03000593          	li	a1,48
a0006adc:	0ff5f593          	zext.b	a1,a1
a0006ae0:	00b70023          	sb	a1,0(a4)
a0006ae4:	00170713          	addi	a4,a4,1
a0006ae8:	fea71ce3          	bne	a4,a0,a0006ae0 <vsnprintf+0x704>
a0006aec:	00660333          	add	t1,a2,t1
a0006af0:	00012823          	sw	zero,16(sp)
a0006af4:	00012423          	sw	zero,8(sp)
a0006af8:	00012a23          	sw	zero,20(sp)
a0006afc:	00030713          	mv	a4,t1
a0006b00:	aef37ee3          	bgeu	t1,a5,a00065fc <vsnprintf+0x220>
a0006b04:	02812603          	lw	a2,40(sp)
a0006b08:	00000513          	li	a0,0
a0006b0c:	03000593          	li	a1,48
a0006b10:	eed5c8e3          	blt	a1,a3,a0006a00 <vsnprintf+0x624>
a0006b14:	04061863          	bnez	a2,a0006b64 <vsnprintf+0x788>
a0006b18:	03410713          	addi	a4,sp,52
a0006b1c:	00d70733          	add	a4,a4,a3
a0006b20:	00074603          	lbu	a2,0(a4)
a0006b24:	00628733          	add	a4,t0,t1
a0006b28:	00c70023          	sb	a2,0(a4)
a0006b2c:	00130313          	addi	t1,t1,1
a0006b30:	00168693          	addi	a3,a3,1
a0006b34:	00030713          	mv	a4,t1
a0006b38:	00000613          	li	a2,0
a0006b3c:	fcf36ae3          	bltu	t1,a5,a0006b10 <vsnprintf+0x734>
a0006b40:	aa050ee3          	beqz	a0,a00065fc <vsnprintf+0x220>
a0006b44:	02012423          	sw	zero,40(sp)
a0006b48:	00000693          	li	a3,0
a0006b4c:	905ff06f          	j	a0006450 <vsnprintf+0x74>
a0006b50:	03000613          	li	a2,48
a0006b54:	d41ff06f          	j	a0006894 <vsnprintf+0x4b8>
a0006b58:	00012423          	sw	zero,8(sp)
a0006b5c:	00012a23          	sw	zero,20(sp)
a0006b60:	e51ff06f          	j	a00069b0 <vsnprintf+0x5d4>
a0006b64:	02d00613          	li	a2,45
a0006b68:	00100513          	li	a0,1
a0006b6c:	fb9ff06f          	j	a0006b24 <vsnprintf+0x748>
a0006b70:	00030493          	mv	s1,t1
a0006b74:	00028413          	mv	s0,t0
a0006b78:	00030713          	mv	a4,t1
a0006b7c:	8e5ff06f          	j	a0006460 <vsnprintf+0x84>
a0006b80:	00012823          	sw	zero,16(sp)
a0006b84:	00012423          	sw	zero,8(sp)
a0006b88:	00012a23          	sw	zero,20(sp)
a0006b8c:	a35ff06f          	j	a00065c0 <vsnprintf+0x1e4>
a0006b90:	00068713          	mv	a4,a3
a0006b94:	00068313          	mv	t1,a3
a0006b98:	e59ff06f          	j	a00069f0 <vsnprintf+0x614>
a0006b9c:	00012823          	sw	zero,16(sp)
a0006ba0:	00012423          	sw	zero,8(sp)
a0006ba4:	00012a23          	sw	zero,20(sp)
a0006ba8:	c8dff06f          	j	a0006834 <vsnprintf+0x458>
a0006bac:	00012823          	sw	zero,16(sp)
a0006bb0:	00012423          	sw	zero,8(sp)
a0006bb4:	00012a23          	sw	zero,20(sp)
a0006bb8:	f45ff06f          	j	a0006afc <vsnprintf+0x720>
a0006bbc:	9f5fe0ef          	jal	ra,a00055b0 <putch>
a0006bc0:	00001417          	auipc	s0,0x1
a0006bc4:	a7840413          	addi	s0,s0,-1416 # a0007638 <r+0x6c0>
a0006bc8:	04100513          	li	a0,65
a0006bcc:	00140413          	addi	s0,s0,1
a0006bd0:	9e1fe0ef          	jal	ra,a00055b0 <putch>
a0006bd4:	00044503          	lbu	a0,0(s0)
a0006bd8:	fe051ae3          	bnez	a0,a0006bcc <vsnprintf+0x7f0>
a0006bdc:	00001417          	auipc	s0,0x1
a0006be0:	e1440413          	addi	s0,s0,-492 # a00079f0 <r+0xa78>
a0006be4:	04e00513          	li	a0,78
a0006be8:	00140413          	addi	s0,s0,1
a0006bec:	9c5fe0ef          	jal	ra,a00055b0 <putch>
a0006bf0:	00044503          	lbu	a0,0(s0)
a0006bf4:	fe051ae3          	bnez	a0,a0006be8 <vsnprintf+0x80c>
a0006bf8:	00001417          	auipc	s0,0x1
a0006bfc:	e1040413          	addi	s0,s0,-496 # a0007a08 <r+0xa90>
a0006c00:	02000513          	li	a0,32
a0006c04:	00140413          	addi	s0,s0,1
a0006c08:	9a9fe0ef          	jal	ra,a00055b0 <putch>
a0006c0c:	00044503          	lbu	a0,0(s0)
a0006c10:	fe051ae3          	bnez	a0,a0006c04 <vsnprintf+0x828>
a0006c14:	b1dff06f          	j	a0006730 <vsnprintf+0x354>

a0006c18 <printf>:
a0006c18:	fd410113          	addi	sp,sp,-44
a0006c1c:	fffff2b7          	lui	t0,0xfffff
a0006c20:	00112a23          	sw	ra,20(sp)
a0006c24:	00812823          	sw	s0,16(sp)
a0006c28:	00912623          	sw	s1,12(sp)
a0006c2c:	00510133          	add	sp,sp,t0
a0006c30:	000012b7          	lui	t0,0x1
a0006c34:	fffff337          	lui	t1,0xfffff
a0006c38:	00428393          	addi	t2,t0,4 # 1004 <_rodata_size+0x370>
a0006c3c:	006383b3          	add	t2,t2,t1
a0006c40:	00810313          	addi	t1,sp,8
a0006c44:	00810093          	addi	ra,sp,8
a0006c48:	00638333          	add	t1,t2,t1
a0006c4c:	01028393          	addi	t2,t0,16
a0006c50:	00612023          	sw	t1,0(sp)
a0006c54:	001383b3          	add	t2,t2,ra
a0006c58:	00b3a023          	sw	a1,0(t2)
a0006c5c:	01428593          	addi	a1,t0,20
a0006c60:	001585b3          	add	a1,a1,ra
a0006c64:	00c5a023          	sw	a2,0(a1)
a0006c68:	01828613          	addi	a2,t0,24
a0006c6c:	00160633          	add	a2,a2,ra
a0006c70:	01c28393          	addi	t2,t0,28
a0006c74:	00d62023          	sw	a3,0(a2)
a0006c78:	001383b3          	add	t2,t2,ra
a0006c7c:	00050613          	mv	a2,a0
a0006c80:	00012503          	lw	a0,0(sp)
a0006c84:	00e3a023          	sw	a4,0(t2)
a0006c88:	02028713          	addi	a4,t0,32
a0006c8c:	00170733          	add	a4,a4,ra
a0006c90:	00f72023          	sw	a5,0(a4)
a0006c94:	00012783          	lw	a5,0(sp)
a0006c98:	01828313          	addi	t1,t0,24
a0006c9c:	00230333          	add	t1,t1,sp
a0006ca0:	fe67ae23          	sw	t1,-4(a5)
a0006ca4:	00030693          	mv	a3,t1
a0006ca8:	000015b7          	lui	a1,0x1
a0006cac:	f30ff0ef          	jal	ra,a00063dc <vsnprintf>
a0006cb0:	00a12223          	sw	a0,4(sp)
a0006cb4:	000017b7          	lui	a5,0x1
a0006cb8:	04a7e263          	bltu	a5,a0,a0006cfc <printf+0xe4>
a0006cbc:	00012483          	lw	s1,0(sp)
a0006cc0:	00412783          	lw	a5,4(sp)
a0006cc4:	00148413          	addi	s0,s1,1
a0006cc8:	00f40433          	add	s0,s0,a5
a0006ccc:	0004c503          	lbu	a0,0(s1)
a0006cd0:	00148493          	addi	s1,s1,1
a0006cd4:	8ddfe0ef          	jal	ra,a00055b0 <putch>
a0006cd8:	fe849ae3          	bne	s1,s0,a0006ccc <printf+0xb4>
a0006cdc:	000012b7          	lui	t0,0x1
a0006ce0:	00412503          	lw	a0,4(sp)
a0006ce4:	00510133          	add	sp,sp,t0
a0006ce8:	01412083          	lw	ra,20(sp)
a0006cec:	01012403          	lw	s0,16(sp)
a0006cf0:	00c12483          	lw	s1,12(sp)
a0006cf4:	02c10113          	addi	sp,sp,44
a0006cf8:	00008067          	ret
a0006cfc:	0ee00613          	li	a2,238
a0006d00:	00001597          	auipc	a1,0x1
a0006d04:	d5458593          	addi	a1,a1,-684 # a0007a54 <r+0xadc>
a0006d08:	00000517          	auipc	a0,0x0
a0006d0c:	15450513          	addi	a0,a0,340 # a0006e5c <_etext+0x54>
a0006d10:	f09ff0ef          	jal	ra,a0006c18 <printf>
a0006d14:	00100513          	li	a0,1
a0006d18:	8b5fe0ef          	jal	ra,a00055cc <halt>

a0006d1c <sprintf>:
a0006d1c:	fe010113          	addi	sp,sp,-32
a0006d20:	01010313          	addi	t1,sp,16
a0006d24:	00c12823          	sw	a2,16(sp)
a0006d28:	00d12a23          	sw	a3,20(sp)
a0006d2c:	00058613          	mv	a2,a1
a0006d30:	00030693          	mv	a3,t1
a0006d34:	000015b7          	lui	a1,0x1
a0006d38:	00112623          	sw	ra,12(sp)
a0006d3c:	00e12c23          	sw	a4,24(sp)
a0006d40:	00f12e23          	sw	a5,28(sp)
a0006d44:	00612023          	sw	t1,0(sp)
a0006d48:	e94ff0ef          	jal	ra,a00063dc <vsnprintf>
a0006d4c:	00c12083          	lw	ra,12(sp)
a0006d50:	02010113          	addi	sp,sp,32
a0006d54:	00008067          	ret

a0006d58 <strcmp>:
a0006d58:	00054783          	lbu	a5,0(a0)
a0006d5c:	0005c303          	lbu	t1,0(a1) # 1000 <_rodata_size+0x36c>
a0006d60:	06078863          	beqz	a5,a0006dd0 <strcmp+0x78>
a0006d64:	00058693          	mv	a3,a1
a0006d68:	00150613          	addi	a2,a0,1
a0006d6c:	01c0006f          	j	a0006d88 <strcmp+0x30>
a0006d70:	00f70663          	beq	a4,a5,a0006d7c <strcmp+0x24>
a0006d74:	06f76663          	bltu	a4,a5,a0006de0 <strcmp+0x88>
a0006d78:	08e7e463          	bltu	a5,a4,a0006e00 <strcmp+0xa8>
a0006d7c:	00064783          	lbu	a5,0(a2)
a0006d80:	00160613          	addi	a2,a2,1
a0006d84:	06078263          	beqz	a5,a0006de8 <strcmp+0x90>
a0006d88:	0006c703          	lbu	a4,0(a3)
a0006d8c:	00168693          	addi	a3,a3,1
a0006d90:	fe0710e3          	bnez	a4,a0006d70 <strcmp+0x18>
a0006d94:	00170713          	addi	a4,a4,1
a0006d98:	00e507b3          	add	a5,a0,a4
a0006d9c:	0007c783          	lbu	a5,0(a5) # 1000 <_rodata_size+0x36c>
a0006da0:	fe079ae3          	bnez	a5,a0006d94 <strcmp+0x3c>
a0006da4:	02030e63          	beqz	t1,a0006de0 <strcmp+0x88>
a0006da8:	00000793          	li	a5,0
a0006dac:	00178793          	addi	a5,a5,1
a0006db0:	00f586b3          	add	a3,a1,a5
a0006db4:	0006c683          	lbu	a3,0(a3)
a0006db8:	fe069ae3          	bnez	a3,a0006dac <strcmp+0x54>
a0006dbc:	00100513          	li	a0,1
a0006dc0:	00e7ee63          	bltu	a5,a4,a0006ddc <strcmp+0x84>
a0006dc4:	00f737b3          	sltu	a5,a4,a5
a0006dc8:	40f00533          	neg	a0,a5
a0006dcc:	00008067          	ret
a0006dd0:	00000713          	li	a4,0
a0006dd4:	fc031ae3          	bnez	t1,a0006da8 <strcmp+0x50>
a0006dd8:	00000513          	li	a0,0
a0006ddc:	00008067          	ret
a0006de0:	00100513          	li	a0,1
a0006de4:	00008067          	ret
a0006de8:	00000713          	li	a4,0
a0006dec:	00170713          	addi	a4,a4,1
a0006df0:	00e507b3          	add	a5,a0,a4
a0006df4:	0007c783          	lbu	a5,0(a5)
a0006df8:	f8079ee3          	bnez	a5,a0006d94 <strcmp+0x3c>
a0006dfc:	fa9ff06f          	j	a0006da4 <strcmp+0x4c>
a0006e00:	fff00513          	li	a0,-1
a0006e04:	00008067          	ret
